	.file	"adc.c"
__SP_H__ = 0x3e
__SP_L__ = 0x3d
__SREG__ = 0x3f
__tmp_reg__ = 0
__zero_reg__ = 1
	.text
.Ltext0:
	.cfi_sections	.debug_frame
	.section	.lowtext,"ax",@progbits
.global	__vector_24
	.type	__vector_24, @function
__vector_24:
.LFB7:
	.file 1 "../driver/adc.c"
	.loc 1 16 0
	.cfi_startproc
	sei
	push r1
.LCFI0:
	.cfi_def_cfa_offset 3
	.cfi_offset 1, -2
	push r0
.LCFI1:
	.cfi_def_cfa_offset 4
	.cfi_offset 0, -3
	in r0,__SREG__
	push r0
	clr __zero_reg__
	push r18
.LCFI2:
	.cfi_def_cfa_offset 5
	.cfi_offset 18, -4
	push r24
.LCFI3:
	.cfi_def_cfa_offset 6
	.cfi_offset 24, -5
	push r25
.LCFI4:
	.cfi_def_cfa_offset 7
	.cfi_offset 25, -6
	push r30
.LCFI5:
	.cfi_def_cfa_offset 8
	.cfi_offset 30, -7
	push r31
.LCFI6:
	.cfi_def_cfa_offset 9
	.cfi_offset 31, -8
/* prologue: Interrupt */
/* frame size = 0 */
/* stack size = 8 */
.L__stack_usage = 8
	.loc 1 18 0
	lds r18,_index.1612
	lds r24,120
	lds r25,120+1
	mov r30,r18
	ldi r31,0
	lsl r30
	rol r31
	subi r30,lo8(-(_adc))
	sbci r31,hi8(-(_adc))
	std Z+1,r25
	st Z,r24
	.loc 1 19 0
	ldi r24,lo8(1)
	add r24,r18
	andi r24,lo8(7)
	sts _index.1612,r24
	.loc 1 20 0
	sts 124,r24
	.loc 1 21 0
	ldi r30,lo8(122)
	ldi r31,0
	ld r24,Z
	ori r24,lo8(64)
	st Z,r24
/* epilogue start */
	.loc 1 22 0
	pop r31
	pop r30
	pop r25
	pop r24
	pop r18
	pop r0
	out __SREG__,r0
	pop r0
	pop r1
	reti
	.cfi_endproc
.LFE7:
	.size	__vector_24, .-__vector_24
	.section	.text.adcInit,"ax",@progbits
.global	adcInit
	.type	adcInit, @function
adcInit:
.LFB8:
	.loc 1 25 0
	.cfi_startproc
/* prologue: function */
/* frame size = 0 */
/* stack size = 0 */
.L__stack_usage = 0
	.loc 1 29 0
	ldi r24,lo8(-1)
	sts 126,r24
	.loc 1 30 0
	sts 124,__zero_reg__
	.loc 1 31 0
	ldi r24,lo8(-33)
	sts 122,r24
	ret
	.cfi_endproc
.LFE8:
	.size	adcInit, .-adcInit
	.section	.text.adcRead,"ax",@progbits
.global	adcRead
	.type	adcRead, @function
adcRead:
.LFB9:
	.loc 1 36 0
	.cfi_startproc
.LVL0:
/* prologue: function */
/* frame size = 0 */
/* stack size = 0 */
.L__stack_usage = 0
	.loc 1 38 0
	ldi r25,lo8(-9)
	sts 122,r25
.L5:
	.loc 1 39 0 discriminator 1
	lds r25,122
	sbrc r25,6
	rjmp .L5
	.loc 1 41 0
	sts 124,r24
	.loc 1 42 0
	lds r24,122
.LVL1:
	ori r24,lo8(64)
	sts 122,r24
.LVL2:
.L7:
	.loc 1 43 0 discriminator 1
	lds r24,122
	sbrc r24,6
	rjmp .L7
	.loc 1 44 0
	ldi r24,lo8(-33)
	sts 122,r24
	.loc 1 45 0
	lds r24,120
	lds r25,120+1
	.loc 1 46 0
	ret
	.cfi_endproc
.LFE9:
	.size	adcRead, .-adcRead
	.section	.text.adcGet,"ax",@progbits
.global	adcGet
	.type	adcGet, @function
adcGet:
.LFB10:
	.loc 1 49 0
	.cfi_startproc
.LVL3:
/* prologue: function */
/* frame size = 0 */
/* stack size = 0 */
.L__stack_usage = 0
.LBB7:
.LBB8:
.LBB9:
	.file 2 "c:\\program files (x86)\\atmel\\atmel toolchain\\avr8 gcc\\native\\3.4.1061\\avr8-gnu-toolchain\\avr\\include\\util\\atomic.h"
	.loc 2 50 0
/* #APP */
 ;  50 "c:\program files (x86)\atmel\atmel toolchain\avr8 gcc\native\3.4.1061\avr8-gnu-toolchain\avr\include\util\atomic.h" 1
	cli
 ;  0 "" 2
.LVL4:
/* #NOAPP */
.LBE9:
.LBE8:
	.loc 1 52 0
	mov r30,r24
	ldi r31,0
	lsl r30
	rol r31
.LVL5:
	subi r30,lo8(-(_adc))
	sbci r31,hi8(-(_adc))
	ld r24,Z
	ldd r25,Z+1
.LVL6:
.LBB10:
.LBB11:
	.loc 2 56 0
/* #APP */
 ;  56 "c:\program files (x86)\atmel\atmel toolchain\avr8 gcc\native\3.4.1061\avr8-gnu-toolchain\avr\include\util\atomic.h" 1
	sei
 ;  0 "" 2
	.loc 2 57 0
/* #NOAPP */
.LBE11:
.LBE10:
.LBE7:
	.loc 1 54 0
	ret
	.cfi_endproc
.LFE10:
	.size	adcGet, .-adcGet
	.section	.bss._index.1612,"aw",@nobits
	.type	_index.1612, @object
	.size	_index.1612, 1
_index.1612:
	.zero	1
	.section	.bss._adc,"aw",@nobits
	.type	_adc, @object
	.size	_adc, 16
_adc:
	.zero	16
	.text
.Letext0:
	.file 3 "c:\\program files (x86)\\atmel\\atmel toolchain\\avr8 gcc\\native\\3.4.1061\\avr8-gnu-toolchain\\avr\\include\\stdint.h"