	.file	"digitals.c"
__SP_H__ = 0x3e
__SP_L__ = 0x3d
__SREG__ = 0x3f
__tmp_reg__ = 0
__zero_reg__ = 1
	.text
.Ltext0:
	.cfi_sections	.debug_frame
	.section	.text.digitalsInit,"ax",@progbits
.global	digitalsInit
	.type	digitalsInit, @function
digitalsInit:
.LFB7:
	.file 1 "../driver/digitals.c"
	.loc 1 22 0
	.cfi_startproc
/* prologue: function */
/* frame size = 0 */
/* stack size = 0 */
.L__stack_usage = 0
	.loc 1 23 0
	sbi 0x4,1
	.loc 1 24 0
	sbi 0x4,3
	ret
	.cfi_endproc
.LFE7:
	.size	digitalsInit, .-digitalsInit
	.section	.text.digitalsBuzzBlocking,"ax",@progbits
.global	digitalsBuzzBlocking
	.type	digitalsBuzzBlocking, @function
digitalsBuzzBlocking:
.LFB8:
	.loc 1 28 0
	.cfi_startproc
.LVL0:
	push r16
.LCFI0:
	.cfi_def_cfa_offset 3
	.cfi_offset 16, -2
	push r17
.LCFI1:
	.cfi_def_cfa_offset 4
	.cfi_offset 17, -3
	push r28
.LCFI2:
	.cfi_def_cfa_offset 5
	.cfi_offset 28, -4
	push r29
.LCFI3:
	.cfi_def_cfa_offset 6
	.cfi_offset 29, -5
/* prologue: function */
/* frame size = 0 */
/* stack size = 4 */
.L__stack_usage = 4
	movw r28,r24
	.loc 1 29 0
	sbi 0x5,1
.LBB2:
	.loc 1 30 0
	call millis
.LVL1:
	movw r16,r24
.LVL2:
.L4:
	.loc 1 30 0 is_stmt 0 discriminator 1
	call millis
.LVL3:
	sub r24,r16
	sbc r25,r17
	cp r24,r28
	cpc r25,r29
	brlo .L4
.LBE2:
	.loc 1 31 0 is_stmt 1
	cbi 0x5,1
/* epilogue start */
	.loc 1 32 0
	pop r29
	pop r28
.LVL4:
	pop r17
	pop r16
.LVL5:
	ret
	.cfi_endproc
.LFE8:
	.size	digitalsBuzzBlocking, .-digitalsBuzzBlocking
	.section	.text.digitalsLoop,"ax",@progbits
.global	digitalsLoop
	.type	digitalsLoop, @function
digitalsLoop:
.LFB9:
	.loc 1 48 0
	.cfi_startproc
/* prologue: function */
/* frame size = 0 */
/* stack size = 0 */
.L__stack_usage = 0
	.loc 1 49 0
	call millis
.LVL6:
	.loc 1 50 0
	lds r20,digBUZZER+2
	lds r21,digBUZZER+2+1
	lds r18,digBUZZER
	lds r19,digBUZZER+1
	cp r20,__zero_reg__
	cpc r21,__zero_reg__
	breq .L7
	.loc 1 50 0 is_stmt 0 discriminator 1
	cp r24,r18
	cpc r25,r19
	brlo .L8
	sbi 0x3,1
	add r20,r24
	adc r21,r25
	sts digBUZZER+1,r21
	sts digBUZZER,r20
	rjmp .L8
.L7:
	.loc 1 50 0 discriminator 2
	cp r18,__zero_reg__
	cpc r19,__zero_reg__
	breq .L8
	.loc 1 50 0 discriminator 1
	sbis 0x5,1
	rjmp .L8
	cp r24,r18
	cpc r25,r19
	brlo .L8
	sbi 0x3,1
.L8:
	.loc 1 51 0 is_stmt 1
	lds r20,digLED+2
	lds r21,digLED+2+1
	lds r18,digLED
	lds r19,digLED+1
	cp r20,__zero_reg__
	cpc r21,__zero_reg__
	breq .L9
	.loc 1 51 0 is_stmt 0 discriminator 1
	cp r24,r18
	cpc r25,r19
	brlo .L6
	sbi 0x3,3
	add r24,r20
	adc r25,r21
.LVL7:
	sts digLED+1,r25
	sts digLED,r24
	ret
.LVL8:
.L9:
	.loc 1 51 0 discriminator 2
	cp r18,__zero_reg__
	cpc r19,__zero_reg__
	breq .L6
	.loc 1 51 0 discriminator 1
	sbis 0x5,3
	rjmp .L6
	cp r24,r18
	cpc r25,r19
	brlo .L6
	sbi 0x3,3
.L6:
	ret
	.cfi_endproc
.LFE9:
	.size	digitalsLoop, .-digitalsLoop
	.section	.text.digitalsBuzz,"ax",@progbits
.global	digitalsBuzz
	.type	digitalsBuzz, @function
digitalsBuzz:
.LFB10:
	.loc 1 55 0 is_stmt 1
	.cfi_startproc
.LVL9:
	push r28
.LCFI4:
	.cfi_def_cfa_offset 3
	.cfi_offset 28, -2
	push r29
.LCFI5:
	.cfi_def_cfa_offset 4
	.cfi_offset 29, -3
/* prologue: function */
/* frame size = 0 */
/* stack size = 2 */
.L__stack_usage = 2
	movw r28,r24
	.loc 1 56 0
	call millis
.LVL10:
	add r24,r28
	adc r25,r29
	sts digBUZZER+1,r25
	sts digBUZZER,r24
	.loc 1 57 0
	sbi 0x5,1
/* epilogue start */
	.loc 1 58 0
	pop r29
	pop r28
.LVL11:
	ret
	.cfi_endproc
.LFE10:
	.size	digitalsBuzz, .-digitalsBuzz
	.section	.text.digitalsBuzzInterval,"ax",@progbits
.global	digitalsBuzzInterval
	.type	digitalsBuzzInterval, @function
digitalsBuzzInterval:
.LFB11:
	.loc 1 61 0
	.cfi_startproc
.LVL12:
	push r28
.LCFI6:
	.cfi_def_cfa_offset 3
	.cfi_offset 28, -2
	push r29
.LCFI7:
	.cfi_def_cfa_offset 4
	.cfi_offset 29, -3
/* prologue: function */
/* frame size = 0 */
/* stack size = 2 */
.L__stack_usage = 2
	movw r28,r24
	.loc 1 62 0
	lds r24,digBUZZER+2
	lds r25,digBUZZER+2+1
.LVL13:
	or r24,r25
	brne .L25
	.loc 1 63 0
	call millis
.LVL14:
	sts digBUZZER+1,r25
	sts digBUZZER,r24
.L25:
	.loc 1 64 0
	sts digBUZZER+2+1,r29
	sts digBUZZER+2,r28
	.loc 1 65 0
	or r28,r29
	brne .L24
	.loc 1 66 0
	cbi 0x5,1
.L24:
/* epilogue start */
	.loc 1 67 0
	pop r29
	pop r28
.LVL15:
	ret
	.cfi_endproc
.LFE11:
	.size	digitalsBuzzInterval, .-digitalsBuzzInterval
	.section	.text.digitalsLed,"ax",@progbits
.global	digitalsLed
	.type	digitalsLed, @function
digitalsLed:
.LFB12:
	.loc 1 70 0
	.cfi_startproc
.LVL16:
	push r28
.LCFI8:
	.cfi_def_cfa_offset 3
	.cfi_offset 28, -2
	push r29
.LCFI9:
	.cfi_def_cfa_offset 4
	.cfi_offset 29, -3
/* prologue: function */
/* frame size = 0 */
/* stack size = 2 */
.L__stack_usage = 2
	movw r28,r24
	.loc 1 71 0
	call millis
.LVL17:
	add r24,r28
	adc r25,r29
	sts digLED+1,r25
	sts digLED,r24
	.loc 1 72 0
	sts digLED+2+1,__zero_reg__
	sts digLED+2,__zero_reg__
	.loc 1 73 0
	sbi 0x5,3
/* epilogue start */
	.loc 1 74 0
	pop r29
	pop r28
.LVL18:
	ret
	.cfi_endproc
.LFE12:
	.size	digitalsLed, .-digitalsLed
	.section	.text.digitalsLedInterval,"ax",@progbits
.global	digitalsLedInterval
	.type	digitalsLedInterval, @function
digitalsLedInterval:
.LFB13:
	.loc 1 77 0
	.cfi_startproc
.LVL19:
	push r28
.LCFI10:
	.cfi_def_cfa_offset 3
	.cfi_offset 28, -2
	push r29
.LCFI11:
	.cfi_def_cfa_offset 4
	.cfi_offset 29, -3
/* prologue: function */
/* frame size = 0 */
/* stack size = 2 */
.L__stack_usage = 2
	movw r28,r24
	.loc 1 78 0
	lds r24,digLED+2
	lds r25,digLED+2+1
.LVL20:
	or r24,r25
	brne .L29
	.loc 1 79 0
	call millis
.LVL21:
	sts digLED+1,r25
	sts digLED,r24
.L29:
	.loc 1 80 0
	sts digLED+2+1,r29
	sts digLED+2,r28
	.loc 1 81 0
	or r28,r29
	brne .L28
	.loc 1 82 0
	cbi 0x5,3
.L28:
/* epilogue start */
	.loc 1 83 0
	pop r29
	pop r28
.LVL22:
	ret
	.cfi_endproc
.LFE13:
	.size	digitalsLedInterval, .-digitalsLedInterval
	.section	.bss.digBUZZER,"aw",@nobits
	.type	digBUZZER, @object
	.size	digBUZZER, 4
digBUZZER:
	.zero	4
	.section	.bss.digLED,"aw",@nobits
	.type	digLED, @object
	.size	digLED, 4
digLED:
	.zero	4
	.text
.Letext0:
	.file 2 "c:\\program files (x86)\\atmel\\atmel toolchain\\avr8 gcc\\native\\3.4.1061\\avr8-gnu-toolchain\\avr\\include\\stdint.h"
	.file 3 "../include/hardware.h"
	.file 4 "../include/system.h"