	.file	"imu.c"
__SP_H__ = 0x3e
__SP_L__ = 0x3d
__SREG__ = 0x3f
__tmp_reg__ = 0
__zero_reg__ = 1
	.text
.Ltext0:
	.cfi_sections	.debug_frame
	.section	.text.getAccAngle,"ax",@progbits
	.type	getAccAngle, @function
getAccAngle:
.LFB12:
	.file 1 "../src/imu.c"
	.loc 1 29 0
	.cfi_startproc
.LVL0:
/* prologue: function */
/* frame size = 0 */
/* stack size = 0 */
.L__stack_usage = 0
	.loc 1 30 0
	movw r30,r24
	sbrs r25,7
	rjmp .L2
	clr r30
	clr r31
	sub r30,r24
	sbc r31,r25
.L2:
	asr r31
	ror r30
.LVL1:
	cpi r30,lo8(64)
	brlo .L3
	ldi r30,lo8(63)
.LVL2:
.L3:
.LBB2:
	.loc 1 33 0
	ldi r31,0
	subi r30,lo8(-(convtab))
	sbci r31,hi8(-(convtab))
/* #APP */
 ;  33 "../src/imu.c" 1
	lpm r30, Z
	
 ;  0 "" 2
.LVL3:
/* #NOAPP */
.LBE2:
	ldi r31,0
	lsl r30
	rol r31
.LVL4:
	.loc 1 34 0
	sbrc r24,0
	.loc 1 34 0 is_stmt 0 discriminator 1
	adiw r30,1
.LVL5:
.L4:
	.loc 1 35 0 is_stmt 1
	sbrs r25,7
	rjmp .L5
	.loc 1 35 0 is_stmt 0 discriminator 1
	neg r31
	neg r30
	sbc r31,__zero_reg__
.LVL6:
.L5:
	.loc 1 37 0 is_stmt 1
	movw r24,r30
.LVL7:
	lsr r25
	mov r25,r24
	clr r24
	ror r25
	ror r24
	ret
	.cfi_endproc
.LFE12:
	.size	getAccAngle, .-getAccAngle
	.section	.text.calcComplementaryAngle,"ax",@progbits
	.type	calcComplementaryAngle, @function
calcComplementaryAngle:
.LFB14:
	.loc 1 49 0
	.cfi_startproc
.LVL8:
	push r16
.LCFI0:
	.cfi_def_cfa_offset 3
	.cfi_offset 16, -2
	push r17
.LCFI1:
	.cfi_def_cfa_offset 4
	.cfi_offset 17, -3
/* prologue: function */
/* frame size = 0 */
/* stack size = 2 */
.L__stack_usage = 2
	.loc 1 51 0
	mov r20,r24
	ldi r21,0
	lsl r20
	rol r21
	movw r26,r20
	subi r26,lo8(-(ANGLE))
	sbci r27,hi8(-(ANGLE))
	movw r30,r20
	subi r30,lo8(-(GYRO_RATE))
	sbci r31,hi8(-(GYRO_RATE))
	ld __tmp_reg__,X+
	ld r27,X
	mov r26,__tmp_reg__
	ld r24,Z
	ldd r25,Z+1
.LVL9:
	add r26,r24
	adc r27,r25
	ldi r18,lo8(-1)
	ldi r19,0
	call __usmulhisi3
.LVL10:
	.loc 1 52 0
	movw r30,r20
	subi r30,lo8(-(ACC_ANGLE))
	sbci r31,hi8(-(ACC_ANGLE))
	ld r16,Z
	ldd r17,Z+1
	clr r18
	sbrc r17,7
	com r18
	mov r19,r18
	add r22,r16
	adc r23,r17
	adc r24,r18
	adc r25,r19
.LVL11:
	.loc 1 53 0
	clr r27
	sbrc r25,7
	dec r27
	mov r26,r25
	mov r25,r24
	mov r24,r23
.LVL12:
	.loc 1 54 0
	sbrs r27,7
	rjmp .L11
	.loc 1 54 0 is_stmt 0 discriminator 1
	adiw r24,1
	adc r26,__zero_reg__
	adc r27,__zero_reg__
.LVL13:
.L11:
/* epilogue start */
	.loc 1 56 0 is_stmt 1
	pop r17
	pop r16
	ret
	.cfi_endproc
.LFE14:
	.size	calcComplementaryAngle, .-calcComplementaryAngle
	.section	.text.imuCalculate,"ax",@progbits
.global	imuCalculate
	.type	imuCalculate, @function
imuCalculate:
.LFB17:
	.loc 1 85 0
	.cfi_startproc
	push r8
.LCFI2:
	.cfi_def_cfa_offset 3
	.cfi_offset 8, -2
	push r9
.LCFI3:
	.cfi_def_cfa_offset 4
	.cfi_offset 9, -3
	push r10
.LCFI4:
	.cfi_def_cfa_offset 5
	.cfi_offset 10, -4
	push r11
.LCFI5:
	.cfi_def_cfa_offset 6
	.cfi_offset 11, -5
	push r12
.LCFI6:
	.cfi_def_cfa_offset 7
	.cfi_offset 12, -6
	push r13
.LCFI7:
	.cfi_def_cfa_offset 8
	.cfi_offset 13, -7
	push r14
.LCFI8:
	.cfi_def_cfa_offset 9
	.cfi_offset 14, -8
	push r15
.LCFI9:
	.cfi_def_cfa_offset 10
	.cfi_offset 15, -9
	push r28
.LCFI10:
	.cfi_def_cfa_offset 11
	.cfi_offset 28, -10
	push r29
.LCFI11:
	.cfi_def_cfa_offset 12
	.cfi_offset 29, -11
/* prologue: function */
/* frame size = 0 */
/* stack size = 10 */
.L__stack_usage = 10
.LBB13:
.LBB14:
	.loc 1 67 0
	call ticks
.LVL14:
	lds r8,lastCall.1948
	lds r9,lastCall.1948+1
	lds r10,lastCall.1948+2
	lds r11,lastCall.1948+3
	movw r28,r22
	sub r28,r8
	sbc r29,r9
.LVL15:
	.loc 1 69 0
	lds r24,ACC
	lds r25,ACC+1
	call getAccAngle
.LVL16:
	lds r18,Config+70
	clr r19
	sbrc r18,7
	com r19
	mov r19,r18
	clr r18
	add r18,r24
	adc r19,r25
	sts ACC_ANGLE+1,r19
	sts ACC_ANGLE,r18
	.loc 1 70 0
	lds r24,ACC+2
	lds r25,ACC+2+1
	call getAccAngle
.LVL17:
	lds r18,Config+71
	clr r19
	sbrc r18,7
	com r19
	mov r19,r18
	clr r18
	add r18,r24
	adc r19,r25
	sts ACC_ANGLE+2+1,r19
	sts ACC_ANGLE+2,r18
	.loc 1 71 0
	lds r24,ACC+4
	lds r25,ACC+4+1
	call getAccAngle
.LVL18:
	subi r25,-90
	sts ACC_ANGLE+4+1,r25
	sts ACC_ANGLE+4,r24
.LVL19:
.LBB15:
.LBB16:
	.loc 1 41 0
	lds r26,GYRO
	lds r27,GYRO+1
	movw r18,r28
	call __usmulhisi3
	clr r27
	sbrc r25,7
	com r27
	mov r26,r27
.LVL20:
	.loc 1 42 0
	sbrs r27,7
	rjmp .L13
	adiw r24,1
	adc r26,__zero_reg__
	adc r27,__zero_reg__
.LVL21:
.L13:
	.loc 1 43 0
	sts GYRO_RATE+1,r25
	sts GYRO_RATE,r24
.LVL22:
.LBE16:
.LBE15:
.LBB17:
.LBB18:
	.loc 1 41 0
	lds r26,GYRO+2
	lds r27,GYRO+2+1
	movw r18,r28
	call __usmulhisi3
	clr r27
	sbrc r25,7
	com r27
	mov r26,r27
.LVL23:
	.loc 1 42 0
	sbrs r27,7
	rjmp .L14
.LVL24:
	adiw r24,1
	adc r26,__zero_reg__
	adc r27,__zero_reg__
.LVL25:
.L14:
	.loc 1 43 0
	sts GYRO_RATE+2+1,r25
	sts GYRO_RATE+2,r24
.LVL26:
.LBE18:
.LBE17:
.LBB19:
.LBB20:
	.loc 1 41 0
	lds r26,GYRO+4
	lds r27,GYRO+4+1
	movw r18,r28
.LVL27:
	call __usmulhisi3
	movw r12,r24
	clr r15
	sbrc r13,7
	com r15
	mov r14,r15
.LVL28:
	.loc 1 42 0
	sbrs r15,7
	rjmp .L15
.LVL29:
	ldi r24,-1
	sub r12,r24
	sbc r13,r24
	sbc r14,r24
	sbc r15,r24
.LVL30:
.L15:
.LBE20:
.LBE19:
	.loc 1 75 0
	sts GYRO_RATE+4+1,r13
	sts GYRO_RATE+4,r12
	.loc 1 77 0
	ldi r24,0
	call calcComplementaryAngle
.LVL31:
	sts ANGLE+1,r25
	sts ANGLE,r24
	.loc 1 78 0
	ldi r24,lo8(1)
	call calcComplementaryAngle
.LVL32:
	sts ANGLE+2+1,r25
	sts ANGLE+2,r24
.LBB21:
.LBB22:
	.loc 1 61 0
	lds r24,ANGLE+4
	lds r25,ANGLE+4+1
	add r24,r12
	adc r25,r13
.LBE22:
.LBE21:
	.loc 1 79 0
	sts ANGLE+4+1,r25
	sts ANGLE+4,r24
	.loc 1 81 0
	add r8,r28
	adc r9,r29
	adc r10,__zero_reg__
	adc r11,__zero_reg__
	sts lastCall.1948,r8
	sts lastCall.1948+1,r9
	sts lastCall.1948+2,r10
	sts lastCall.1948+3,r11
/* epilogue start */
.LBE14:
.LBE13:
	.loc 1 87 0
	pop r29
	pop r28
.LVL33:
	pop r15
	pop r14
	pop r13
	pop r12
	pop r11
	pop r10
	pop r9
	pop r8
	ret
	.cfi_endproc
.LFE17:
	.size	imuCalculate, .-imuCalculate
	.section	.bss.lastCall.1948,"aw",@nobits
	.type	lastCall.1948, @object
	.size	lastCall.1948, 4
lastCall.1948:
	.zero	4
	.section	.progmem.data.convtab,"a",@progbits
	.type	convtab, @object
	.size	convtab, 64
convtab:
	.byte	0
	.byte	1
	.byte	2
	.byte	3
	.byte	4
	.byte	5
	.byte	5
	.byte	6
	.byte	7
	.byte	8
	.byte	9
	.byte	10
	.byte	11
	.byte	12
	.byte	13
	.byte	14
	.byte	15
	.byte	16
	.byte	17
	.byte	18
	.byte	19
	.byte	19
	.byte	20
	.byte	21
	.byte	22
	.byte	23
	.byte	24
	.byte	25
	.byte	26
	.byte	27
	.byte	28
	.byte	29
	.byte	31
	.byte	32
	.byte	33
	.byte	34
	.byte	35
	.byte	36
	.byte	37
	.byte	38
	.byte	39
	.byte	41
	.byte	42
	.byte	43
	.byte	44
	.byte	46
	.byte	47
	.byte	48
	.byte	50
	.byte	51
	.byte	53
	.byte	54
	.byte	56
	.byte	57
	.byte	59
	.byte	61
	.byte	63
	.byte	65
	.byte	67
	.byte	69
	.byte	72
	.byte	76
	.byte	80
	.byte	90
	.comm	GYRO_RATE,6,1
	.comm	ACC_ANGLE,6,1
	.comm	ANGLE,6,1
	.text
.Letext0:
	.file 2 "c:\\program files (x86)\\atmel\\atmel toolchain\\avr8 gcc\\native\\3.4.1061\\avr8-gnu-toolchain\\avr\\include\\stdint.h"
	.file 3 "../include/mixer.h"
	.file 4 "../include/pid.h"
	.file 5 "../include/config.h"
	.file 6 "../include/sensors.h"
	.file 7 "../include/system.h"