	.file	"keyboard.c"
__SP_H__ = 0x3e
__SP_L__ = 0x3d
__SREG__ = 0x3f
__tmp_reg__ = 0
__zero_reg__ = 1
	.text
.Ltext0:
	.cfi_sections	.debug_frame
	.section	.text.keyboardState,"ax",@progbits
.global	keyboardState
	.type	keyboardState, @function
keyboardState:
.LFB7:
	.file 1 "../driver/keyboard.c"
	.loc 1 20 0
	.cfi_startproc
/* prologue: function */
/* frame size = 0 */
/* stack size = 0 */
.L__stack_usage = 0
	.loc 1 21 0
	in r24,0x3
	com r24
	.loc 1 22 0
	andi r24,lo8(-16)
	ret
	.cfi_endproc
.LFE7:
	.size	keyboardState, .-keyboardState
	.section	.text.keyboardRead,"ax",@progbits
.global	keyboardRead
	.type	keyboardRead, @function
keyboardRead:
.LFB8:
	.loc 1 25 0
	.cfi_startproc
	push r16
.LCFI0:
	.cfi_def_cfa_offset 3
	.cfi_offset 16, -2
	push r17
.LCFI1:
	.cfi_def_cfa_offset 4
	.cfi_offset 17, -3
	push r28
.LCFI2:
	.cfi_def_cfa_offset 5
	.cfi_offset 28, -4
	push r29
.LCFI3:
	.cfi_def_cfa_offset 6
	.cfi_offset 29, -5
/* prologue: function */
/* frame size = 0 */
/* stack size = 4 */
.L__stack_usage = 4
	.loc 1 26 0
	call millis
.LVL0:
	movw r28,r24
.LVL1:
	.loc 1 27 0
	call keyboardState
.LVL2:
	mov r17,r24
.LVL3:
	.loc 1 28 0
	lds r24,lastKeys
	mov r16,r24
	com r16
	and r16,r17
.LVL4:
	.loc 1 29 0
	tst r17
	breq .L3
	.loc 1 31 0
	cp r24,r17
	breq .L4
	.loc 1 33 0
	sts keyDown+1,r29
	sts keyDown,r28
	.loc 1 34 0
	sts repeat,__zero_reg__
	.loc 1 35 0
	ldi r24,lo8(5)
	ldi r25,0
	call digitalsBuzz
.LVL5:
.L4:
	.loc 1 37 0
	lds r24,repeat
	lds r18,keyDown
	lds r19,keyDown+1
	cpi r24,lo8(16)
	brlo .L5
	.loc 1 37 0 is_stmt 0 discriminator 1
	movw r20,r28
	sub r20,r18
	sbc r21,r19
	cpi r20,20
	cpc r21,__zero_reg__
	brlo .L6
.LVL6:
	.loc 1 40 0 is_stmt 1
	sts keyDown+1,r29
	sts keyDown,r28
	rjmp .L11
.LVL7:
.L5:
	.loc 1 42 0
	tst r24
	breq .L7
.L6:
	.loc 1 42 0 is_stmt 0 discriminator 1
	movw r20,r28
	sub r20,r18
	sbc r21,r19
	cpi r20,100
	cpc r21,__zero_reg__
	brlo .L3
.LVL8:
	.loc 1 45 0 is_stmt 1
	sts keyDown+1,r29
	sts keyDown,r28
	.loc 1 46 0
	subi r24,lo8(-(1))
	rjmp .L12
.LVL9:
.L7:
	.loc 1 48 0 discriminator 1
	movw r24,r28
	sub r24,r18
	sbc r25,r19
	movw r18,r24
	cpi r18,-12
	sbci r19,1
	brlo .L3
.LVL10:
	.loc 1 51 0
	sts keyDown+1,r29
	sts keyDown,r28
	.loc 1 52 0
	ldi r24,lo8(1)
.L12:
	sts repeat,r24
.L11:
	mov r16,r17
.LVL11:
.L3:
	.loc 1 55 0
	sts lastKeys,r17
	.loc 1 57 0
	mov r24,r16
/* epilogue start */
	pop r29
	pop r28
.LVL12:
	pop r17
.LVL13:
	pop r16
.LVL14:
	ret
	.cfi_endproc
.LFE8:
	.size	keyboardRead, .-keyboardRead
	.section	.text.keyboardInit,"ax",@progbits
.global	keyboardInit
	.type	keyboardInit, @function
keyboardInit:
.LFB9:
	.loc 1 60 0
	.cfi_startproc
/* prologue: function */
/* frame size = 0 */
/* stack size = 0 */
.L__stack_usage = 0
	.loc 1 62 0
	in r24,0x4
	ori r24,lo8(-16)
	out 0x4,r24
	.loc 1 64 0
	in r24,0x5
	ori r24,lo8(-16)
	out 0x5,r24
	ret
	.cfi_endproc
.LFE9:
	.size	keyboardInit, .-keyboardInit
	.section	.bss.repeat,"aw",@nobits
	.type	repeat, @object
	.size	repeat, 1
repeat:
	.zero	1
	.section	.bss.keyDown,"aw",@nobits
	.type	keyDown, @object
	.size	keyDown, 2
keyDown:
	.zero	2
	.section	.bss.lastKeys,"aw",@nobits
	.type	lastKeys, @object
	.size	lastKeys, 1
lastKeys:
	.zero	1
	.text
.Letext0:
	.file 2 "c:\\program files (x86)\\atmel\\atmel toolchain\\avr8 gcc\\native\\3.4.1061\\avr8-gnu-toolchain\\avr\\include\\stdint.h"
	.file 3 "../include/system.h"
	.file 4 "../include/digitals.h"