	.file	"menu.c"
__SP_H__ = 0x3e
__SP_L__ = 0x3d
__SREG__ = 0x3f
__tmp_reg__ = 0
__zero_reg__ = 1
	.text
.Ltext0:
	.cfi_sections	.debug_frame
	.section	.text.tsmMain,"ax",@progbits
	.type	tsmMain, @function
tsmMain:
.LFB49:
	.file 1 "../menu/menu.c"
	.loc 1 969 0
	.cfi_startproc
.LVL0:
/* prologue: function */
/* frame size = 0 */
/* stack size = 0 */
.L__stack_usage = 0
.LBB30:
	.loc 1 970 0
	mov r30,r24
	ldi r31,0
	lsl r30
	rol r31
.LVL1:
	subi r30,lo8(-(lstMenu))
	sbci r31,hi8(-(lstMenu))
.LVL2:
.LBE30:
	.loc 1 971 0
/* #APP */
 ;  970 "../menu/menu.c" 1
	lpm r24, Z+
	lpm r25, Z
	
 ;  0 "" 2
/* #NOAPP */
	ret
	.cfi_endproc
.LFE49:
	.size	tsmMain, .-tsmMain
	.section	.text.loadPage,"ax",@progbits
	.type	loadPage, @function
loadPage:
.LFB18:
	.loc 1 224 0
	.cfi_startproc
.LVL3:
	push r28
.LCFI0:
	.cfi_def_cfa_offset 3
	.cfi_offset 28, -2
/* prologue: function */
/* frame size = 0 */
/* stack size = 1 */
.L__stack_usage = 1
	mov r28,r24
	.loc 1 225 0
	ldi r24,lo8(6)
.LVL4:
	mul r28,r24
	movw r22,r0
	clr __zero_reg__
	subi r22,lo8(-(pages))
	sbci r23,hi8(-(pages))
	ldi r20,lo8(6)
	ldi r21,0
	ldi r24,lo8(currentPage)
	ldi r25,hi8(currentPage)
	call memcpy_P
.LVL5:
	.loc 1 226 0
	sts menuPage,r28
	.loc 1 227 0
	ldi r24,lo8(4)
	sts keys,r24
	.loc 1 228 0
	sts elementIndex,__zero_reg__
	.loc 1 229 0
	sts subpage,__zero_reg__
/* epilogue start */
	.loc 1 230 0
	pop r28
.LVL6:
	ret
	.cfi_endproc
.LFE18:
	.size	loadPage, .-loadPage
	.section	.text.tsmLoadModelLayout,"ax",@progbits
	.type	tsmLoadModelLayout, @function
tsmLoadModelLayout:
.LFB50:
	.loc 1 974 0
	.cfi_startproc
.LVL7:
	push r28
.LCFI1:
	.cfi_def_cfa_offset 3
	.cfi_offset 28, -2
	push r29
.LCFI2:
	.cfi_def_cfa_offset 4
	.cfi_offset 29, -3
	rcall .
	push __zero_reg__
.LCFI3:
	.cfi_def_cfa_offset 7
	in r28,__SP_L__
	in r29,__SP_H__
.LCFI4:
	.cfi_def_cfa_register 28
/* prologue: function */
/* frame size = 3 */
/* stack size = 5 */
.L__stack_usage = 5
.LBB31:
	.loc 1 976 0
	mov r30,r24
	ldi r31,0
	lsl r30
	rol r31
	subi r30,lo8(-(modelTable))
	sbci r31,hi8(-(modelTable))
.LVL8:
/* #APP */
 ;  976 "../menu/menu.c" 1
	lpm r22, Z+
	lpm r23, Z
	
 ;  0 "" 2
.LVL9:
/* #NOAPP */
.LBE31:
	.loc 1 977 0
	ldi r20,lo8(3)
	ldi r21,0
	movw r24,r28
.LVL10:
	adiw r24,1
	call memcpy_P
.LVL11:
	.loc 1 979 0
	ldd r24,Y+1
	ldd r25,Y+2
/* epilogue start */
	pop __tmp_reg__
	pop __tmp_reg__
	pop __tmp_reg__
	pop r29
	pop r28
	ret
	.cfi_endproc
.LFE50:
	.size	tsmLoadModelLayout, .-tsmLoadModelLayout
	.section	.text.writeSpace,"ax",@progbits
	.type	writeSpace, @function
writeSpace:
.LFB12:
	.loc 1 177 0
	.cfi_startproc
.LVL12:
	push r28
.LCFI5:
	.cfi_def_cfa_offset 3
	.cfi_offset 28, -2
	push r29
.LCFI6:
	.cfi_def_cfa_offset 4
	.cfi_offset 29, -3
/* prologue: function */
/* frame size = 0 */
/* stack size = 2 */
.L__stack_usage = 2
	mov r29,r24
.LVL13:
.LBB32:
	.loc 1 178 0
	ldi r28,0
.LVL14:
.L5:
	.loc 1 178 0 is_stmt 0 discriminator 1
	cp r28,r29
	brge .L8
	.loc 1 179 0 is_stmt 1 discriminator 2
	ldi r24,lo8(32)
	call lcdWriteChar
.LVL15:
	subi r28,lo8(-(1))
.LVL16:
	rjmp .L5
.L8:
/* epilogue start */
.LBE32:
	.loc 1 180 0
	pop r29
.LVL17:
	pop r28
.LVL18:
	ret
	.cfi_endproc
.LFE12:
	.size	writeSpace, .-writeSpace
	.section	.text.writePadded_P,"ax",@progbits
	.type	writePadded_P, @function
writePadded_P:
.LFB14:
	.loc 1 189 0
	.cfi_startproc
.LVL19:
	push r16
.LCFI7:
	.cfi_def_cfa_offset 3
	.cfi_offset 16, -2
	push r17
.LCFI8:
	.cfi_def_cfa_offset 4
	.cfi_offset 17, -3
	push r28
.LCFI9:
	.cfi_def_cfa_offset 5
	.cfi_offset 28, -4
	push r29
.LCFI10:
	.cfi_def_cfa_offset 6
	.cfi_offset 29, -5
	push __zero_reg__
.LCFI11:
	.cfi_def_cfa_offset 7
	in r28,__SP_L__
	in r29,__SP_H__
.LCFI12:
	.cfi_def_cfa_register 28
/* prologue: function */
/* frame size = 1 */
/* stack size = 5 */
.L__stack_usage = 5
	movw r16,r24
	.loc 1 190 0
	std Y+1,r22
	call lcdWriteString_P
.LVL20:
.LBB33:
.LBB34:
	.file 2 "c:\\program files (x86)\\atmel\\atmel toolchain\\avr8 gcc\\native\\3.4.1061\\avr8-gnu-toolchain\\avr\\include\\avr\\pgmspace.h"
	.loc 2 1187 0
	movw r24,r16
	call __strlen_P
.LVL21:
.LBE34:
.LBE33:
	.loc 1 191 0
	ldd r22,Y+1
	sub r22,r24
	mov r24,r22
/* epilogue start */
	.loc 1 192 0
	pop __tmp_reg__
	pop r29
	pop r28
	pop r17
	pop r16
.LVL22:
	.loc 1 191 0
	jmp writeSpace
.LVL23:
	.cfi_endproc
.LFE14:
	.size	writePadded_P, .-writePadded_P
	.section	.text.writeSoftkeys,"ax",@progbits
	.type	writeSoftkeys, @function
writeSoftkeys:
.LFB15:
	.loc 1 195 0
	.cfi_startproc
.LVL24:
	push r28
.LCFI13:
	.cfi_def_cfa_offset 3
	.cfi_offset 28, -2
	push r29
.LCFI14:
	.cfi_def_cfa_offset 4
	.cfi_offset 29, -3
/* prologue: function */
/* frame size = 0 */
/* stack size = 2 */
.L__stack_usage = 2
	movw r28,r24
	.loc 1 196 0
	sbiw r24,0
	brne .L11
	.loc 1 197 0
	lds r28,currentPage
	lds r29,currentPage+1
.LVL25:
	.loc 1 198 0
	sbiw r28,0
	breq .L10
.L11:
	.loc 1 200 0
	ldi r22,0
	ldi r24,lo8(7)
	call lcdSetPos
.LVL26:
	.loc 1 201 0
	ldi r22,lo8(21)
	movw r24,r28
/* epilogue start */
	.loc 1 203 0
	pop r29
	pop r28
.LVL27:
	.loc 1 201 0
	jmp writePadded_P
.LVL28:
.L10:
/* epilogue start */
	.loc 1 203 0
	pop r29
	pop r28
.LVL29:
	ret
	.cfi_endproc
.LFE15:
	.size	writeSoftkeys, .-writeSoftkeys
	.section	.text.writeString_P,"ax",@progbits
	.type	writeString_P, @function
writeString_P:
.LFB16:
	.loc 1 206 0
	.cfi_startproc
.LVL30:
	push r14
.LCFI15:
	.cfi_def_cfa_offset 3
	.cfi_offset 14, -2
	push r15
.LCFI16:
	.cfi_def_cfa_offset 4
	.cfi_offset 15, -3
	push r16
.LCFI17:
	.cfi_def_cfa_offset 5
	.cfi_offset 16, -4
	push r17
.LCFI18:
	.cfi_def_cfa_offset 6
	.cfi_offset 17, -5
	push r28
.LCFI19:
	.cfi_def_cfa_offset 7
	.cfi_offset 28, -6
	push r29
.LCFI20:
	.cfi_def_cfa_offset 8
	.cfi_offset 29, -7
	rcall .
.LCFI21:
	.cfi_def_cfa_offset 10
	in r28,__SP_L__
	in r29,__SP_H__
.LCFI22:
	.cfi_def_cfa_register 28
/* prologue: function */
/* frame size = 2 */
/* stack size = 8 */
.L__stack_usage = 8
	mov r17,r24
	movw r14,r20
	.loc 1 207 0
	ldi r25,lo8(1)
	lds r24,elementIndex
.LVL31:
	cpse r16,r24
	ldi r25,0
.L14:
	mov r24,r25
	std Y+2,r18
	std Y+1,r22
	call lcdReverse
.LVL32:
	.loc 1 208 0
	ldd r22,Y+1
	mov r24,r17
	call lcdSetPos
.LVL33:
	.loc 1 209 0
	ldd r18,Y+2
	mov r22,r18
	movw r24,r14
	call writePadded_P
.LVL34:
	.loc 1 210 0
	ldi r24,0
/* epilogue start */
	.loc 1 211 0
	pop __tmp_reg__
	pop __tmp_reg__
	pop r29
	pop r28
	pop r17
.LVL35:
	pop r16
.LVL36:
	pop r15
	pop r14
.LVL37:
	.loc 1 210 0
	jmp lcdReverse
.LVL38:
	.cfi_endproc
.LFE16:
	.size	writeString_P, .-writeString_P
	.section	.text.showMotor,"ax",@progbits
	.type	showMotor, @function
showMotor:
.LFB25:
	.loc 1 380 0
	.cfi_startproc
.LVL39:
	push r13
.LCFI23:
	.cfi_def_cfa_offset 3
	.cfi_offset 13, -2
	push r14
.LCFI24:
	.cfi_def_cfa_offset 4
	.cfi_offset 14, -3
	push r15
.LCFI25:
	.cfi_def_cfa_offset 5
	.cfi_offset 15, -4
	push r16
.LCFI26:
	.cfi_def_cfa_offset 6
	.cfi_offset 16, -5
	push r17
.LCFI27:
	.cfi_def_cfa_offset 7
	.cfi_offset 17, -6
	push r28
.LCFI28:
	.cfi_def_cfa_offset 8
	.cfi_offset 28, -7
	push r29
.LCFI29:
	.cfi_def_cfa_offset 9
	.cfi_offset 29, -8
/* prologue: function */
/* frame size = 0 */
/* stack size = 7 */
.L__stack_usage = 7
	mov r14,r24
	mov r15,r22
	.loc 1 382 0
	ldi r24,lo8(6)
.LVL40:
	mul r14,r24
	movw r28,r0
	clr __zero_reg__
	subi r28,lo8(-(Config+72))
	sbci r29,hi8(-(Config+72))
.LVL41:
	.loc 1 384 0
	ldd r24,Y+5
	sbrs r24,0
	rjmp .L16
	.loc 1 386 0
	ldd r25,Y+1
	sbrc r25,7
	subi r25,lo8(-(3))
.L17:
	mov r16,r25
	asr r16
	asr r16
.LVL42:
	.loc 1 387 0
	ldd r17,Y+2
	sbrc r17,7
	subi r17,lo8(-(3))
.L18:
	asr r17
	asr r17
	neg r17
.LVL43:
	ldi r22,lo8(32)
.LVL44:
	add r22,r17
.LVL45:
	.loc 1 389 0
	ldi r18,lo8(32)
	ldi r20,lo8(96)
	ldi r24,lo8(96)
	add r24,r16
	call lcdLine
.LVL46:
	.loc 1 390 0
	ldi r22,lo8(30)
	ldi r24,lo8(94)
	call lcdXY
.LVL47:
	.loc 1 391 0
	ldi r22,0
	ldi r24,lo8(glyFC)
	ldi r25,hi8(glyFC)
	call lcdWriteGlyph_P
.LVL48:
	.loc 1 392 0
	ldi r22,lo8(28)
	add r22,r17
	ldi r18,lo8(92)
	mov r13,r18
	add r13,r16
	mov r24,r13
	call lcdXY
.LVL49:
	.loc 1 393 0
	ldi r22,lo8(1)
	ldi r24,lo8(glyBall)
	ldi r25,hi8(glyBall)
	call lcdWriteGlyph_P
.LVL50:
	.loc 1 394 0
	ldi r22,lo8(25)
	add r22,r17
	mov r24,r13
	call lcdXY
.LVL51:
	.loc 1 395 0
	ldd r24,Y+3
	.loc 1 396 0
	ldi r22,lo8(1)
	.loc 1 395 0
	sbrc r24,7
	rjmp .L19
	.loc 1 396 0
	ldi r24,lo8(glyDirCW)
	ldi r25,hi8(glyDirCW)
	rjmp .L29
.L19:
	.loc 1 398 0
	ldi r24,lo8(glyDirCCW)
	ldi r25,hi8(glyDirCCW)
.L29:
	call lcdWriteGlyph_P
.LVL52:
	.loc 1 400 0
	ldi r22,lo8(30)
	add r22,r17
	ldi r24,lo8(94)
	add r24,r16
	call lcdXY
.LVL53:
	.loc 1 401 0
	ldi r24,lo8(1)
	call lcdReverse
.LVL54:
	.loc 1 402 0
	ldi r24,lo8(font4x6)
	ldi r25,hi8(font4x6)
	call lcdSelectFont
.LVL55:
	.loc 1 403 0
	ldi r24,lo8(49)
	add r24,r14
	call lcdWriteChar
.LVL56:
	.loc 1 404 0
	ldi r24,0
	ldi r25,0
	call lcdSelectFont
.LVL57:
	.loc 1 405 0
	ldi r24,0
	call lcdReverse
.LVL58:
	.loc 1 407 0
	tst r15
	breq .L15
	.loc 1 409 0
	ldi r22,0
	ldi r24,lo8(2)
	call lcdSetPos
.LVL59:
	.loc 1 410 0
	ldi r24,lo8(strDirSeen)
	ldi r25,hi8(strDirSeen)
	call lcdWriteString_P
.LVL60:
	.loc 1 411 0
	ldi r22,0
	ldi r24,lo8(5)
	call lcdSetPos
.LVL61:
	.loc 1 412 0
	ldd r24,Y+3
	sbrc r24,7
	rjmp .L23
	.loc 1 413 0
	ldi r24,lo8(strCW)
	ldi r25,hi8(strCW)
	rjmp .L30
.L23:
	.loc 1 415 0
	ldi r24,lo8(strCCW)
	ldi r25,hi8(strCCW)
	rjmp .L30
.LVL62:
.L16:
	.loc 1 418 0
	tst r22
	breq .L15
	.loc 1 420 0
	ldi r22,lo8(64)
	ldi r24,lo8(3)
	call lcdSetPos
.LVL63:
	.loc 1 421 0
	ldd r24,Y+5
	sbrs r24,1
	rjmp .L25
	.loc 1 422 0
	ldi r24,lo8(strServo)
	ldi r25,hi8(strServo)
	rjmp .L30
.L25:
	.loc 1 424 0
	ldi r24,lo8(strUnused)
	ldi r25,hi8(strUnused)
.L30:
/* epilogue start */
	.loc 1 426 0
	pop r29
	pop r28
.LVL64:
	pop r17
	pop r16
	pop r15
.LVL65:
	pop r14
.LVL66:
	pop r13
	.loc 1 424 0
	jmp lcdWriteString_P
.LVL67:
.L15:
/* epilogue start */
	.loc 1 426 0
	pop r29
	pop r28
.LVL68:
	pop r17
	pop r16
	pop r15
.LVL69:
	pop r14
.LVL70:
	pop r13
	ret
	.cfi_endproc
.LFE25:
	.size	showMotor, .-showMotor
	.section	.text.elementKey,"ax",@progbits
	.type	elementKey, @function
elementKey:
.LFB19:
	.loc 1 233 0
	.cfi_startproc
.LVL71:
/* prologue: function */
/* frame size = 0 */
/* stack size = 0 */
.L__stack_usage = 0
	.loc 1 234 0
	lds r25,keys
	sbrs r25,6
	rjmp .L32
	.loc 1 235 0
	lds r22,elementIndex
	cpse r22,__zero_reg__
	rjmp .L33
	.loc 1 235 0 is_stmt 0 discriminator 1
	subi r24,lo8(-(-1))
.LVL72:
	rjmp .L39
.LVL73:
.L33:
	.loc 1 235 0 discriminator 2
	ldi r24,lo8(-1)
.LVL74:
	add r24,r22
	rjmp .L39
.LVL75:
.L32:
	.loc 1 236 0 is_stmt 1
	sbrs r25,5
	rjmp .L31
.LVL76:
.LBB37:
.LBB38:
	.loc 1 237 0
	lds r18,elementIndex
	ldi r19,0
	subi r18,-1
	sbci r19,-1
	mov r22,r24
	ldi r23,0
	movw r24,r18
.LVL77:
	call __divmodhi4
.LVL78:
.L39:
	sts elementIndex,r24
.L31:
	ret
.LBE38:
.LBE37:
	.cfi_endproc
.LFE19:
	.size	elementKey, .-elementKey
	.section	.text._hFactoryReset,"ax",@progbits
	.type	_hFactoryReset, @function
_hFactoryReset:
.LFB35:
	.loc 1 716 0
	.cfi_startproc
/* prologue: function */
/* frame size = 0 */
/* stack size = 0 */
.L__stack_usage = 0
	.loc 1 717 0
	lds r24,keys
	sbrs r24,0
	rjmp .L41
	.loc 1 719 0
	ldi r22,lo8(18)
	ldi r24,lo8(3)
	call lcdSetPos
.LVL79:
	.loc 1 720 0
	ldi r24,lo8(strAreYouSure)
	ldi r25,hi8(strAreYouSure)
	jmp lcdWriteString_P
.LVL80:
.L41:
	.loc 1 722 0
	sbrs r24,4
	rjmp .L40
.LBB41:
.LBB42:
	.loc 1 724 0
	call configReset
.LVL81:
	.loc 1 725 0
	call configSave
.LVL82:
	.loc 1 728 0
/* #APP */
 ;  728 "../menu/menu.c" 1
	cli
 ;  0 "" 2
	.loc 1 729 0
/* #NOAPP */
	ldi r18,lo8(8)
	ldi r24,lo8(24)
	ldi r25,0
/* #APP */
 ;  729 "../menu/menu.c" 1
	in __tmp_reg__,__SREG__
	cli
	wdr
	sts 96,r24
	out __SREG__,__tmp_reg__
	sts 96,r18
	
 ;  0 "" 2
/* #NOAPP */
.L43:
	rjmp .L43
.L40:
	ret
.LBE42:
.LBE41:
	.cfi_endproc
.LFE35:
	.size	_hFactoryReset, .-_hFactoryReset
	.section	.text._hESCCalibration,"ax",@progbits
	.type	_hESCCalibration, @function
_hESCCalibration:
.LFB32:
	.loc 1 652 0
	.cfi_startproc
/* prologue: function */
/* frame size = 0 */
/* stack size = 0 */
.L__stack_usage = 0
	.loc 1 653 0
	lds r24,keys
	tst r24
	breq .L44
	.loc 1 655 0
	lds r24,elementIndex
	cpi r24,lo8(6)
	brlo .L46
	.loc 1 656 0
	ldi r24,lo8(1)
	jmp loadPage
.LVL83:
.L46:
.LBB47:
.LBB48:
	.loc 1 659 0
	call lcdClear
.LVL84:
.LBB49:
	.loc 1 660 0
	lds r30,elementIndex
	ldi r31,0
	lsl r30
	rol r31
	subi r30,lo8(-(scrESCCal))
	sbci r31,hi8(-(scrESCCal))
.LVL85:
.LBE49:
	.loc 1 661 0
/* #APP */
 ;  660 "../menu/menu.c" 1
	lpm r24, Z+
	lpm r25, Z
	
 ;  0 "" 2
/* #NOAPP */
	call lcdWriteString_P
.LVL86:
	.loc 1 662 0
	ldi r24,0
	ldi r25,0
	call writeSoftkeys
.LVL87:
	.loc 1 663 0
	lds r24,elementIndex
	subi r24,lo8(-(1))
	sts elementIndex,r24
.L44:
	ret
.LBE48:
.LBE47:
	.cfi_endproc
.LFE32:
	.size	_hESCCalibration, .-_hESCCalibration
	.section	.text.doMenu,"ax",@progbits
	.type	doMenu, @function
doMenu:
.LFB23:
	.loc 1 326 0
	.cfi_startproc
.LVL88:
	push r14
.LCFI30:
	.cfi_def_cfa_offset 3
	.cfi_offset 14, -2
	push r15
.LCFI31:
	.cfi_def_cfa_offset 4
	.cfi_offset 15, -3
	push r16
.LCFI32:
	.cfi_def_cfa_offset 5
	.cfi_offset 16, -4
	push r17
.LCFI33:
	.cfi_def_cfa_offset 6
	.cfi_offset 17, -5
	push r28
.LCFI34:
	.cfi_def_cfa_offset 7
	.cfi_offset 28, -6
	push r29
.LCFI35:
	.cfi_def_cfa_offset 8
	.cfi_offset 29, -7
/* prologue: function */
/* frame size = 0 */
/* stack size = 6 */
.L__stack_usage = 6
	movw r28,r24
	.loc 1 327 0
	lds r24,keys
.LVL89:
	tst r24
	brne .+2
	rjmp .L64
	.loc 1 330 0
	sbrs r24,6
	rjmp .L52
	.loc 1 332 0
	ldd r24,Y+4
	tst r24
	breq .L53
	.loc 1 333 0
	subi r24,lo8(-(-1))
	std Y+4,r24
	rjmp .L53
.L52:
	.loc 1 335 0
	sbrs r24,5
	rjmp .L54
	.loc 1 337 0
	ldd r20,Y+4
	mov r18,r20
	ldi r19,0
	ld r24,Y
	ldi r25,0
	sbiw r24,1
	cp r18,r24
	cpc r19,r25
	brge .L53
	.loc 1 338 0
	subi r20,lo8(-(1))
	std Y+4,r20
	rjmp .L53
.L54:
	.loc 1 340 0
	sbrc r24,4
	rjmp .L65
.L53:
.LVL90:
.LBB54:
.LBB55:
	.loc 1 343 0
	ldd r18,Y+4
	ldd r19,Y+3
	cp r18,r19
	brlo .L72
	.loc 1 345 0
	mov r24,r18
	ldi r25,0
	sub r24,r19
	sbc r25,__zero_reg__
	sbiw r24,5
	brlt .L56
	.loc 1 346 0
	subi r18,lo8(-(-4))
.L72:
	std Y+3,r18
.L56:
	.loc 1 349 0
	ldi r22,lo8(58)
	ldi r24,0
	call lcdSetPos
.LVL91:
	.loc 1 350 0
	ldi r24,lo8(1)
	ldd r25,Y+3
	cpse r25,__zero_reg__
	ldi r24,0
.L57:
	call lcdReverse
.LVL92:
	.loc 1 351 0
	ldi r22,lo8(1)
	ldi r24,lo8(glyArrowUp)
	ldi r25,hi8(glyArrowUp)
	call lcdWriteGlyph_P
.LVL93:
	ldi r16,0
	ldi r17,0
.LVL94:
.L58:
.LBB56:
	.loc 1 354 0
	ld r24,Y
	cp r16,r24
	brsh .L63
.LBB57:
	.loc 1 356 0
	ldi r22,0
	ldi r24,lo8(1)
	add r24,r16
	call lcdSetPos
.LVL95:
	.loc 1 357 0
	ldd r24,Y+3
	ldd r30,Y+1
	ldd r31,Y+2
	add r24,r16
	icall
.LVL96:
	movw r14,r24
.LVL97:
	.loc 1 358 0
	ldd r24,Y+3
	movw r20,r16
	add r20,r24
	adc r21,__zero_reg__
	ldd r18,Y+4
	ldi r19,0
	ldi r24,lo8(1)
	cp r20,r18
	cpc r21,r19
	breq .L59
	ldi r24,0
.L59:
	call lcdReverse
.LVL98:
	.loc 1 359 0
	ldi r22,lo8(21)
	movw r24,r14
	call writePadded_P
.LVL99:
	subi r16,-1
	sbci r17,-1
.LVL100:
.LBE57:
	.loc 1 354 0
	cpi r16,5
	cpc r17,__zero_reg__
	brne .L58
.LVL101:
.L63:
.LBE56:
	.loc 1 363 0
	ldi r22,lo8(58)
	ldi r24,lo8(6)
	call lcdSetPos
.LVL102:
	.loc 1 364 0
	ldd r20,Y+3
	ldi r21,0
	ld r18,Y
	ldi r19,0
	subi r18,5
	sbc r19,__zero_reg__
	ldi r24,lo8(1)
	cp r20,r18
	cpc r21,r19
	brge .L61
	ldi r24,0
.L61:
	call lcdReverse
.LVL103:
	.loc 1 365 0
	ldi r22,lo8(1)
	ldi r24,lo8(glyArrowDown)
	ldi r25,hi8(glyArrowDown)
	call lcdWriteGlyph_P
.LVL104:
.L64:
.LBE55:
.LBE54:
	.loc 1 327 0
	ldi r24,0
	rjmp .L51
.L65:
	.loc 1 341 0
	ldi r24,lo8(1)
.L51:
/* epilogue start */
	.loc 1 368 0
	pop r29
	pop r28
.LVL105:
	pop r17
	pop r16
	pop r15
	pop r14
	ret
	.cfi_endproc
.LFE23:
	.size	doMenu, .-doMenu
	.section	.text._hLoadModelLayout,"ax",@progbits
	.type	_hLoadModelLayout, @function
_hLoadModelLayout:
.LFB27:
	.loc 1 455 0
	.cfi_startproc
/* prologue: function */
/* frame size = 0 */
/* stack size = 0 */
.L__stack_usage = 0
	.loc 1 456 0
	lds r24,keys
	sbrs r24,0
	rjmp .L74
	.loc 1 457 0
	lds r25,Config+55
	sts mnuMLayout+4,r25
.L74:
	.loc 1 459 0
	lds r25,elementIndex
	cpse r25,__zero_reg__
	rjmp .L75
	.loc 1 461 0
	ldi r24,lo8(mnuMLayout)
	ldi r25,hi8(mnuMLayout)
	call doMenu
.LVL106:
	tst r24
	breq .L73
.LBB60:
.LBB61:
	.loc 1 463 0
	call lcdClear
.LVL107:
	.loc 1 464 0
	ldi r22,lo8(18)
	ldi r24,lo8(3)
	call lcdSetPos
.LVL108:
	.loc 1 465 0
	ldi r24,lo8(strAreYouSure)
	ldi r25,hi8(strAreYouSure)
	call lcdWriteString_P
.LVL109:
	.loc 1 466 0
	ldi r24,lo8(_skCANCELYES)
	ldi r25,hi8(_skCANCELYES)
	call writeSoftkeys
.LVL110:
	.loc 1 467 0
	ldi r24,lo8(1)
	sts elementIndex,r24
	ret
.L75:
.LBE61:
.LBE60:
	.loc 1 470 0
	sbrs r24,4
	rjmp .L73
	.loc 1 472 0
	lds r24,mnuMLayout+4
	call mixerLoadModel
.LVL111:
	.loc 1 474 0
	ldi r24,lo8(15)
	jmp loadPage
.LVL112:
.L73:
	ret
	.cfi_endproc
.LFE27:
	.size	_hLoadModelLayout, .-_hLoadModelLayout
	.section	.text._hMenu,"ax",@progbits
	.type	_hMenu, @function
_hMenu:
.LFB24:
	.loc 1 371 0
	.cfi_startproc
/* prologue: function */
/* frame size = 0 */
/* stack size = 0 */
.L__stack_usage = 0
	.loc 1 372 0
	ldi r24,lo8(mnuMain)
	ldi r25,hi8(mnuMain)
	call doMenu
.LVL113:
	tst r24
	breq .L85
.LBB64:
.LBB65:
	.loc 1 373 0
	lds r24,mnuMain+4
	subi r24,lo8(-(2))
	jmp loadPage
.LVL114:
.L85:
	ret
.LBE65:
.LBE64:
	.cfi_endproc
.LFE24:
	.size	_hMenu, .-_hMenu
	.section	.text._hShowModelLayout,"ax",@progbits
	.type	_hShowModelLayout, @function
_hShowModelLayout:
.LFB26:
	.loc 1 429 0
	.cfi_startproc
	push r28
.LCFI36:
	.cfi_def_cfa_offset 3
	.cfi_offset 28, -2
/* prologue: function */
/* frame size = 0 */
/* stack size = 1 */
.L__stack_usage = 1
	.loc 1 430 0
	lds r24,keys
	tst r24
	breq .L87
	.loc 1 432 0
	sbrs r24,6
	rjmp .L90
	.loc 1 433 0
	lds r24,elementIndex
	ldi r25,0
	adiw r24,1
	ldi r22,lo8(9)
	ldi r23,0
	call __divmodhi4
	sts elementIndex,r24
.L90:
	.loc 1 435 0
	call lcdClear
.LVL115:
	.loc 1 436 0
	ldi r24,0
	ldi r25,0
	call writeSoftkeys
.LVL116:
	.loc 1 437 0
	ldi r22,0
	ldi r24,0
	call lcdSetPos
.LVL117:
	.loc 1 438 0
	ldi r24,lo8(strOutput)
	ldi r25,hi8(strOutput)
	call lcdWriteString_P
.LVL118:
	.loc 1 439 0
	ldi r24,lo8(32)
	call lcdWriteChar
.LVL119:
	.loc 1 440 0
	lds r24,elementIndex
	cpse r24,__zero_reg__
	rjmp .L91
.LBB69:
.LBB70:
	.loc 1 442 0
	ldi r24,lo8(strALL)
	ldi r25,hi8(strALL)
	call lcdWriteString_P
.LVL120:
.LBB71:
	.loc 1 443 0
	ldi r28,0
.LVL121:
.L93:
	.loc 1 444 0
	ldi r22,0
	mov r24,r28
	call showMotor
.LVL122:
	.loc 1 443 0
	subi r28,lo8(-(1))
.LVL123:
	cpi r28,lo8(8)
	brne .L93
	rjmp .L87
.LVL124:
.L91:
.LBE71:
.LBE70:
.LBE69:
	.loc 1 448 0
	subi r24,lo8(-(48))
	call lcdWriteChar
.LVL125:
	.loc 1 449 0
	lds r24,elementIndex
	ldi r22,lo8(1)
	subi r24,lo8(-(-1))
/* epilogue start */
	.loc 1 452 0
	pop r28
	.loc 1 449 0
	jmp showMotor
.LVL126:
.L87:
/* epilogue start */
	.loc 1 452 0
	pop r28
	ret
	.cfi_endproc
.LFE26:
	.size	_hShowModelLayout, .-_hShowModelLayout
	.section	.text._hStickCentering,"ax",@progbits
	.type	_hStickCentering, @function
_hStickCentering:
.LFB33:
	.loc 1 669 0
	.cfi_startproc
/* prologue: function */
/* frame size = 0 */
/* stack size = 0 */
.L__stack_usage = 0
	.loc 1 670 0
	lds r24,keys
	sbrs r24,0
	rjmp .L101
	.loc 1 672 0
	lds r24,RX_good
	andi r24,lo8(15)
	cpi r24,lo8(15)
	breq .L102
	.loc 1 674 0
	ldi r24,lo8(scrRadioCal1)
	ldi r25,hi8(scrRadioCal1)
	call lcdWriteString_P
.LVL127:
	.loc 1 675 0
	ldi r24,lo8(1)
	sts elementIndex,r24
	.loc 1 676 0
	ldi r24,lo8(_skBACK)
	ldi r25,hi8(_skBACK)
	call writeSoftkeys
.LVL128:
	rjmp .L101
.L102:
	.loc 1 679 0
	ldi r24,lo8(scrRadioCal0)
	ldi r25,hi8(scrRadioCal0)
	call lcdWriteString_P
.LVL129:
.L101:
	.loc 1 682 0
	lds r25,elementIndex
	lds r24,keys
	cpse r25,__zero_reg__
	rjmp .L103
	.loc 1 684 0
	sbrs r24,4
	rjmp .L100
.LBB74:
.LBB75:
	.loc 1 686 0
	call lcdClear
.LVL130:
	.loc 1 687 0
	call rxCalibrate
.LVL131:
	tst r24
	breq .L105
	.loc 1 689 0
	call configSave
.LVL132:
	.loc 1 690 0
	ldi r22,0
	ldi r24,lo8(3)
	call lcdSetPos
.LVL133:
	.loc 1 691 0
	ldi r24,lo8(strCalSucc)
	ldi r25,hi8(strCalSucc)
	rjmp .L116
.L105:
	.loc 1 694 0
	ldi r24,lo8(scrRadioCal2)
	ldi r25,hi8(scrRadioCal2)
.L116:
	call lcdWriteString_P
.LVL134:
	.loc 1 696 0
	ldi r24,0
	ldi r25,0
	call writeSoftkeys
.LVL135:
	.loc 1 697 0
	ldi r24,lo8(1)
	sts elementIndex,r24
	ret
.L103:
.LBE75:
.LBE74:
	.loc 1 700 0
	sbrs r24,4
	rjmp .L100
	.loc 1 701 0
	ldi r24,lo8(1)
	jmp loadPage
.LVL136:
.L100:
	ret
	.cfi_endproc
.LFE33:
	.size	_hStickCentering, .-_hStickCentering
	.section	.text._hSensorCalibration,"ax",@progbits
	.type	_hSensorCalibration, @function
_hSensorCalibration:
.LFB31:
	.loc 1 617 0
	.cfi_startproc
	push r28
.LCFI37:
	.cfi_def_cfa_offset 3
	.cfi_offset 28, -2
/* prologue: function */
/* frame size = 0 */
/* stack size = 1 */
.L__stack_usage = 1
	.loc 1 618 0
	lds r24,elementIndex
	cpse r24,__zero_reg__
	rjmp .L118
	.loc 1 620 0
	lds r24,keys
	sbrs r24,4
	rjmp .L117
	.loc 1 622 0
	ldi r24,lo8(1)
	sts elementIndex,r24
	.loc 1 623 0
	call lcdClear
.LVL137:
	.loc 1 624 0
	ldi r22,lo8(18)
	ldi r24,lo8(3)
	call lcdSetPos
.LVL138:
	.loc 1 625 0
	ldi r24,lo8(strWait)
	ldi r25,hi8(strWait)
	call lcdWriteString_P
.LVL139:
	.loc 1 626 0
	ldi r22,lo8(78)
	ldi r24,lo8(3)
	call lcdSetPos
.LVL140:
	.loc 1 627 0
	ldi r24,lo8(strSec)
	ldi r25,hi8(strSec)
	call lcdWriteString_P
.LVL141:
	.loc 1 628 0
	ldi r24,lo8(_skCANCEL)
	ldi r25,hi8(_skCANCEL)
	call writeSoftkeys
.LVL142:
	.loc 1 629 0
	call millis
.LVL143:
	sts _tStart+1,r25
	sts _tStart,r24
	rjmp .L117
.L118:
	.loc 1 632 0
	cpi r24,lo8(1)
	brne .L121
.LBB79:
.LBB80:
	.loc 1 634 0
	ldi r22,lo8(66)
	ldi r24,lo8(3)
	call lcdSetPos
.LVL144:
	.loc 1 635 0
	call millis
.LVL145:
	lds r18,_tStart
	lds r19,_tStart+1
	sub r24,r18
	sbc r25,r19
	ldi r22,lo8(-24)
	ldi r23,lo8(3)
	call __udivmodhi4
	mov r28,r22
.LVL146:
	.loc 1 636 0
	ldi r24,lo8(53)
	sub r24,r22
	call lcdWriteChar
.LVL147:
	.loc 1 637 0
	cpi r28,lo8(5)
	brlo .L117
	.loc 1 639 0
	call sensorsCalibrate
.LVL148:
	.loc 1 640 0
	call configSave
.LVL149:
	.loc 1 641 0
	ldi r22,0
	ldi r24,lo8(3)
	call lcdSetPos
.LVL150:
	.loc 1 642 0
	ldi r24,lo8(strCalSucc)
	ldi r25,hi8(strCalSucc)
	call lcdWriteString_P
.LVL151:
	.loc 1 643 0
	ldi r24,0
	ldi r25,0
	call writeSoftkeys
.LVL152:
	.loc 1 644 0
	ldi r24,lo8(2)
	sts elementIndex,r24
	rjmp .L117
.LVL153:
.L121:
.LBE80:
.LBE79:
	.loc 1 647 0
	lds r24,keys
	sbrs r24,4
	rjmp .L117
	.loc 1 648 0
	ldi r24,lo8(1)
/* epilogue start */
	.loc 1 649 0
	pop r28
	.loc 1 648 0
	jmp loadPage
.LVL154:
.L117:
/* epilogue start */
	.loc 1 649 0
	pop r28
	ret
	.cfi_endproc
.LFE31:
	.size	_hSensorCalibration, .-_hSensorCalibration
	.section	.text._hModeSettings,"ax",@progbits
	.type	_hModeSettings, @function
_hModeSettings:
.LFB36:
	.loc 1 735 0
	.cfi_startproc
	push r16
.LCFI38:
	.cfi_def_cfa_offset 3
	.cfi_offset 16, -2
	push r28
.LCFI39:
	.cfi_def_cfa_offset 4
	.cfi_offset 28, -3
/* prologue: function */
/* frame size = 0 */
/* stack size = 2 */
.L__stack_usage = 2
	.loc 1 736 0
	lds r28,keys
	tst r28
	brne .+2
	rjmp .L126
.LBB83:
.LBB84:
	.loc 1 737 0
	ldi r24,lo8(5)
	call elementKey
.LVL155:
	.loc 1 738 0
	sbrs r28,4
	rjmp .L128
	.loc 1 740 0
	lds r24,elementIndex
	cpse r24,__zero_reg__
	rjmp .L129
	lds r24,Config+50
	ldi r25,0
	adiw r24,1
	ldi r22,lo8(3)
	ldi r23,0
	call __divmodhi4
	sts Config+50,r24
	rjmp .L130
.L129:
	.loc 1 741 0
	cpi r24,lo8(1)
	brne .L131
	lds r25,Config+51
	cpse r25,__zero_reg__
	ldi r24,0
.L132:
	sts Config+51,r24
	rjmp .L130
.L131:
	.loc 1 742 0
	cpi r24,lo8(2)
	brne .L133
	ldi r24,lo8(1)
	lds r25,Config+53
	cpse r25,__zero_reg__
	ldi r24,0
.L134:
	sts Config+53,r24
	rjmp .L130
.L133:
	.loc 1 743 0
	cpi r24,lo8(3)
	brne .L135
	ldi r24,lo8(1)
	lds r25,Config+52
	cpse r25,__zero_reg__
	ldi r24,0
.L136:
	sts Config+52,r24
	rjmp .L130
.L135:
	.loc 1 744 0
	ldi r24,lo8(1)
	lds r25,Config+54
	cpse r25,__zero_reg__
	ldi r24,0
.L137:
	sts Config+54,r24
.L130:
	lds r24,Config+54
	call rxInit
.LVL156:
.L128:
	.loc 1 749 0
	lds r24,Config+50
	cpi r24,lo8(2)
	breq .L143
	.loc 1 750 0
	cpi r24,lo8(1)
	brne .L144
	ldi r20,lo8(strAUX)
	ldi r21,hi8(strAUX)
	rjmp .L138
.L143:
	.loc 1 749 0
	ldi r20,lo8(strOn)
	ldi r21,hi8(strOn)
	rjmp .L138
.L144:
	.loc 1 751 0
	ldi r20,lo8(strStick)
	ldi r21,hi8(strStick)
.L138:
.LVL157:
	.loc 1 753 0
	ldi r16,0
	ldi r18,lo8(5)
	ldi r22,lo8(84)
	ldi r24,0
	call writeString_P
.LVL158:
	.loc 1 754 0
	lds r24,Config+51
	tst r24
	breq .L145
	ldi r20,lo8(strOn)
	ldi r21,hi8(strOn)
	rjmp .L139
.L145:
	ldi r20,lo8(strStick)
	ldi r21,hi8(strStick)
.L139:
	ldi r16,lo8(1)
	ldi r18,lo8(5)
	ldi r22,lo8(84)
	ldi r24,lo8(1)
	call writeString_P
.LVL159:
	.loc 1 755 0
	lds r24,Config+53
	tst r24
	breq .L146
	ldi r20,lo8(strYes)
	ldi r21,hi8(strYes)
	rjmp .L140
.L146:
	ldi r20,lo8(strNo)
	ldi r21,hi8(strNo)
.L140:
	ldi r16,lo8(2)
	ldi r18,lo8(3)
	ldi r22,lo8(102)
	ldi r24,lo8(2)
	call writeString_P
.LVL160:
	.loc 1 756 0
	lds r24,Config+52
	tst r24
	breq .L147
	ldi r20,lo8(strYes)
	ldi r21,hi8(strYes)
	rjmp .L141
.L147:
	ldi r20,lo8(strNo)
	ldi r21,hi8(strNo)
.L141:
	ldi r16,lo8(3)
	ldi r18,lo8(3)
	ldi r22,lo8(84)
	ldi r24,lo8(3)
	call writeString_P
.LVL161:
	.loc 1 757 0
	lds r24,Config+54
	tst r24
	breq .L148
	ldi r20,lo8(strYes)
	ldi r21,hi8(strYes)
	rjmp .L142
.L148:
	ldi r20,lo8(strNo)
	ldi r21,hi8(strNo)
.L142:
	ldi r16,lo8(4)
	ldi r18,lo8(3)
	ldi r22,lo8(84)
	ldi r24,lo8(4)
	call writeString_P
.LVL162:
.L126:
/* epilogue start */
.LBE84:
.LBE83:
	.loc 1 758 0
	pop r28
	pop r16
	ret
	.cfi_endproc
.LFE36:
	.size	_hModeSettings, .-_hModeSettings
	.section	.text.writeValue,"ax",@progbits
	.type	writeValue, @function
writeValue:
.LFB17:
	.loc 1 214 0
	.cfi_startproc
.LVL163:
	push r12
.LCFI40:
	.cfi_def_cfa_offset 3
	.cfi_offset 12, -2
	push r13
.LCFI41:
	.cfi_def_cfa_offset 4
	.cfi_offset 13, -3
	push r14
.LCFI42:
	.cfi_def_cfa_offset 5
	.cfi_offset 14, -4
	push r15
.LCFI43:
	.cfi_def_cfa_offset 6
	.cfi_offset 15, -5
	push r16
.LCFI44:
	.cfi_def_cfa_offset 7
	.cfi_offset 16, -6
	push r17
.LCFI45:
	.cfi_def_cfa_offset 8
	.cfi_offset 17, -7
	push r28
.LCFI46:
	.cfi_def_cfa_offset 9
	.cfi_offset 28, -8
	push r29
.LCFI47:
	.cfi_def_cfa_offset 10
	.cfi_offset 29, -9
	in r28,__SP_L__
	in r29,__SP_H__
.LCFI48:
	.cfi_def_cfa_register 28
	sbiw r28,7
.LCFI49:
	.cfi_def_cfa_offset 17
	in __tmp_reg__,__SREG__
	cli
	out __SP_H__,r29
	out __SREG__,__tmp_reg__
	out __SP_L__,r28
/* prologue: function */
/* frame size = 7 */
/* stack size = 15 */
.L__stack_usage = 15
	mov r17,r24
	mov r13,r22
	movw r24,r20
.LVL164:
	mov r12,r18
.LVL165:
.LBB90:
.LBB91:
	.file 3 "c:\\program files (x86)\\atmel\\atmel toolchain\\avr8 gcc\\native\\3.4.1061\\avr8-gnu-toolchain\\avr\\include\\stdlib.h"
	.loc 3 428 0
	ldi r20,lo8(10)
.LVL166:
	movw r18,r28
.LVL167:
	subi r18,-1
	sbci r19,-1
	movw r14,r18
	movw r22,r18
.LVL168:
	call __itoa_ncheck
.LVL169:
.LBE91:
.LBE90:
	.loc 1 217 0
	ldi r25,lo8(1)
	lds r24,elementIndex
	cpse r16,r24
	ldi r25,0
.L168:
	mov r24,r25
	call lcdReverse
.LVL170:
	.loc 1 218 0
	mov r22,r13
	mov r24,r17
	call lcdSetPos
.LVL171:
.LBB92:
.LBB93:
	.loc 1 184 0
	movw r24,r14
	call lcdWriteString
.LVL172:
	.loc 1 185 0
	movw r30,r14
	0:
	ld __tmp_reg__,Z+
	tst __tmp_reg__
	brne 0b
	sbiw r30,1
	sub r30,r14
	sbc r31,r15
	mov r24,r12
	sub r24,r30
	call writeSpace
.LVL173:
.LBE93:
.LBE92:
	.loc 1 220 0
	ldi r24,0
	call lcdReverse
.LVL174:
/* epilogue start */
	.loc 1 221 0
	adiw r28,7
	in __tmp_reg__,__SREG__
	cli
	out __SP_H__,r29
	out __SREG__,__tmp_reg__
	out __SP_L__,r28
	pop r29
	pop r28
	pop r17
.LVL175:
	pop r16
.LVL176:
	pop r15
	pop r14
	pop r13
.LVL177:
	pop r12
.LVL178:
	ret
	.cfi_endproc
.LFE17:
	.size	writeValue, .-writeValue
	.section	.text._hDebug,"ax",@progbits
	.type	_hDebug, @function
_hDebug:
.LFB34:
	.loc 1 706 0
	.cfi_startproc
	push r16
.LCFI50:
	.cfi_def_cfa_offset 3
	.cfi_offset 16, -2
/* prologue: function */
/* frame size = 0 */
/* stack size = 1 */
.L__stack_usage = 1
	.loc 1 707 0
	lds r20,Config+55
	ldi r21,0
	ldi r16,lo8(-1)
	ldi r18,lo8(2)
	ldi r22,lo8(66)
	ldi r24,0
	call writeValue
.LVL179:
	.loc 1 708 0
	lds r20,CONTROL
	lds r21,CONTROL+1
	ldi r18,lo8(6)
	ldi r22,lo8(66)
	ldi r24,lo8(1)
	call writeValue
.LVL180:
	.loc 1 709 0
	lds r20,CONTROL+2
	lds r21,CONTROL+2+1
	ldi r18,lo8(6)
	ldi r22,lo8(66)
	ldi r24,lo8(2)
	call writeValue
.LVL181:
	.loc 1 710 0
	lds r20,CONTROL+4
	lds r21,CONTROL+4+1
	ldi r18,lo8(6)
	ldi r22,lo8(66)
	ldi r24,lo8(3)
	call writeValue
.LVL182:
	.loc 1 711 0
	lds r20,CONTROL+6
	lds r21,CONTROL+6+1
	ldi r18,lo8(6)
	ldi r22,lo8(66)
	ldi r24,lo8(4)
	call writeValue
.LVL183:
/* epilogue start */
	.loc 1 712 0
	pop r16
	ret
	.cfi_endproc
.LFE34:
	.size	_hDebug, .-_hDebug
	.section	.text._hSensorTest,"ax",@progbits
	.type	_hSensorTest, @function
_hSensorTest:
.LFB29:
	.loc 1 565 0
	.cfi_startproc
	push r14
.LCFI51:
	.cfi_def_cfa_offset 3
	.cfi_offset 14, -2
	push r15
.LCFI52:
	.cfi_def_cfa_offset 4
	.cfi_offset 15, -3
	push r16
.LCFI53:
	.cfi_def_cfa_offset 5
	.cfi_offset 16, -4
	push r17
.LCFI54:
	.cfi_def_cfa_offset 6
	.cfi_offset 17, -5
	push r28
.LCFI55:
	.cfi_def_cfa_offset 7
	.cfi_offset 28, -6
	push r29
.LCFI56:
	.cfi_def_cfa_offset 8
	.cfi_offset 29, -7
/* prologue: function */
/* frame size = 0 */
/* stack size = 6 */
.L__stack_usage = 6
.LVL184:
	ldi r20,lo8(GYRO)
	mov r14,r20
	ldi r20,hi8(GYRO)
	mov r15,r20
	ldi r28,lo8(ACC)
	ldi r29,hi8(ACC)
.LBB94:
	.loc 1 566 0
	ldi r17,0
.LVL185:
.L172:
	.loc 1 568 0 discriminator 2
	movw r30,r14
	ld r20,Z+
	ld r21,Z+
	movw r14,r30
	ldi r16,lo8(-1)
	ldi r18,lo8(5)
	ldi r22,lo8(48)
	mov r24,r17
	call writeValue
.LVL186:
	.loc 1 569 0 discriminator 2
	ld r20,Y+
	ld r21,Y+
	ldi r18,lo8(5)
	ldi r22,lo8(48)
	ldi r24,lo8(3)
	add r24,r17
	call writeValue
.LVL187:
	.loc 1 566 0 discriminator 2
	subi r17,lo8(-(1))
.LVL188:
	cpi r17,lo8(3)
	brne .L172
.LBE94:
	.loc 1 571 0
	lds r20,BATT
	ldi r21,0
	ldi r18,lo8(5)
	ldi r22,lo8(48)
	ldi r24,lo8(6)
	call writeValue
.LVL189:
/* epilogue start */
	.loc 1 572 0
	pop r29
	pop r28
	pop r17
.LVL190:
	pop r16
	pop r15
	pop r14
	ret
	.cfi_endproc
.LFE29:
	.size	_hSensorTest, .-_hSensorTest
	.section	.text._hReceiverTest,"ax",@progbits
	.type	_hReceiverTest, @function
_hReceiverTest:
.LFB30:
	.loc 1 575 0
	.cfi_startproc
	push r14
.LCFI57:
	.cfi_def_cfa_offset 3
	.cfi_offset 14, -2
	push r15
.LCFI58:
	.cfi_def_cfa_offset 4
	.cfi_offset 15, -3
	push r16
.LCFI59:
	.cfi_def_cfa_offset 5
	.cfi_offset 16, -4
	push r17
.LCFI60:
	.cfi_def_cfa_offset 6
	.cfi_offset 17, -5
	push r28
.LCFI61:
	.cfi_def_cfa_offset 7
	.cfi_offset 28, -6
	push r29
.LCFI62:
	.cfi_def_cfa_offset 8
	.cfi_offset 29, -7
/* prologue: function */
/* frame size = 0 */
/* stack size = 6 */
.L__stack_usage = 6
.LVL191:
	ldi r23,lo8(RX)
	mov r14,r23
	ldi r23,hi8(RX)
	mov r15,r23
	.loc 1 575 0
	ldi r28,0
	ldi r29,0
.LVL192:
.L182:
.LBB95:
	.loc 1 587 0
	lds r24,RX_good
	ldi r25,0
	mov r0,r28
	rjmp 2f
	1:
	asr r25
	ror r24
	2:
	dec r0
	brpl 1b
	sbrs r24,0
	rjmp .L174
	.loc 1 589 0
	movw r30,r14
	ld r20,Z
	ldd r21,Z+1
	ldi r16,lo8(-1)
	ldi r18,lo8(4)
	ldi r22,lo8(66)
	mov r24,r28
	call writeValue
.LVL193:
	.loc 1 590 0
	ldi r22,lo8(96)
	mov r24,r28
	call lcdSetPos
.LVL194:
	.loc 1 591 0
	cpi r28,lo8(3)
	brne .L175
	.loc 1 593 0
	lds r24,State+1
	tst r24
	breq .L176
	.loc 1 594 0
	ldi r22,lo8(5)
	ldi r24,lo8(strIdle)
	ldi r25,hi8(strIdle)
	rjmp .L183
.L176:
	.loc 1 595 0
	lds r24,RX+6
	lds r25,RX+6+1
	sbiw r24,50
	brlt .L178
	.loc 1 596 0
	ldi r22,lo8(5)
	ldi r24,lo8(strFull)
	ldi r25,hi8(strFull)
.L183:
	call writePadded_P
.LVL195:
	rjmp .L177
.L175:
	.loc 1 602 0
	movw r30,r14
	ld r24,Z
	ldd r25,Z+1
	movw r18,r24
	sbrs r25,7
	rjmp .L179
	clr r18
	clr r19
	sub r18,r24
	sbc r19,r25
.L179:
	cpi r18,26
	cpc r19,__zero_reg__
	brge .L184
.L178:
	.loc 1 598 0
	ldi r24,lo8(5)
	call writeSpace
.LVL196:
	rjmp .L177
.L184:
.LBB96:
	.loc 1 603 0
	ldi r18,lo8(1)
	ldi r19,0
	cp __zero_reg__,r24
	cpc __zero_reg__,r25
	brlt .L180
	ldi r18,0
	ldi r19,0
.L180:
	movw r30,r28
	lsl r30
	rol r31
	add r30,r18
	adc r31,r19
	lsl r30
	rol r31
	subi r30,lo8(-(info.2403))
	sbci r31,hi8(-(info.2403))
.LVL197:
/* #APP */
 ;  603 "../menu/menu.c" 1
	lpm r24, Z+
	lpm r25, Z
	
 ;  0 "" 2
.LVL198:
/* #NOAPP */
.LBE96:
	ldi r22,lo8(5)
	rjmp .L183
.LVL199:
.L174:
	.loc 1 610 0
	ldi r22,lo8(66)
	mov r24,r28
	call lcdSetPos
.LVL200:
	.loc 1 611 0
	ldi r24,lo8(strNoSignal)
	ldi r25,hi8(strNoSignal)
	call lcdWriteString_P
.LVL201:
.L177:
	adiw r28,1
.LVL202:
	ldi r31,2
	add r14,r31
	adc r15,__zero_reg__
	.loc 1 585 0
	cpi r28,6
	cpc r29,__zero_reg__
	breq .+2
	rjmp .L182
/* epilogue start */
.LBE95:
	.loc 1 614 0
	pop r29
	pop r28
.LVL203:
	pop r17
	pop r16
	pop r15
	pop r14
	ret
	.cfi_endproc
.LFE30:
	.size	_hReceiverTest, .-_hReceiverTest
	.section	.text.editModeHandler,"ax",@progbits
	.type	editModeHandler, @function
editModeHandler:
.LFB21:
	.loc 1 263 0
	.cfi_startproc
	push r16
.LCFI63:
	.cfi_def_cfa_offset 3
	.cfi_offset 16, -2
/* prologue: function */
/* frame size = 0 */
/* stack size = 1 */
.L__stack_usage = 1
	.loc 1 264 0
	lds r24,keys
	sbrs r24,4
	rjmp .L186
.LBB99:
.LBB100:
	.loc 1 266 0
	sts editMode,__zero_reg__
	.loc 1 268 0
	lds r24,editValueType
	tst r24
	breq .L196
	.loc 1 270 0
	cpi r24,lo8(1)
	brne .L188
.L196:
	.loc 1 271 0
	lds r30,editValuePtr
	lds r31,editValuePtr+1
	lds r24,editValue
	st Z,r24
.L188:
	.loc 1 274 0
	ldi r24,0
	ldi r25,0
	call lcdSelectFont
.LVL204:
	.loc 1 275 0
	ldi r24,lo8(2)
	sts keys,r24
/* epilogue start */
.LBE100:
.LBE99:
	.loc 1 297 0
	pop r16
.LBB102:
.LBB101:
	.loc 1 277 0
	jmp defaultHandler
.LVL205:
.L186:
.LBE101:
.LBE102:
	.loc 1 280 0
	tst r24
	breq .L185
	.loc 1 282 0
	sbrs r24,6
	rjmp .L190
	.loc 1 284 0
	lds r24,editValue
	lds r25,editValue+1
	lds r18,editLoLimit
	lds r19,editLoLimit+1
	cp r18,r24
	cpc r19,r25
	brge .L191
	.loc 1 285 0
	sbiw r24,1
	rjmp .L197
.L190:
	.loc 1 287 0
	sbrs r24,5
	rjmp .L192
	.loc 1 289 0
	lds r24,editValue
	lds r25,editValue+1
	lds r18,editHiLimit
	lds r19,editHiLimit+1
	cp r24,r18
	cpc r25,r19
	brge .L191
	.loc 1 290 0
	adiw r24,1
	rjmp .L197
.L192:
	.loc 1 292 0
	sbrs r24,7
	rjmp .L191
	.loc 1 293 0
	lds r24,editInitialValue
	lds r25,editInitialValue+1
.L197:
	sts editValue+1,r25
	sts editValue,r24
.L191:
	.loc 1 295 0
	lds r20,editValue
	lds r21,editValue+1
	ldi r16,lo8(-1)
	ldi r18,lo8(5)
	ldi r22,lo8(34)
	ldi r24,lo8(2)
	call writeValue
.LVL206:
.L185:
/* epilogue start */
	.loc 1 297 0
	pop r16
	ret
	.cfi_endproc
.LFE21:
	.size	editModeHandler, .-editModeHandler
	.section	.text.defaultHandler,"ax",@progbits
	.type	defaultHandler, @function
defaultHandler:
.LFB20:
	.loc 1 242 0
	.cfi_startproc
/* prologue: function */
/* frame size = 0 */
/* stack size = 0 */
.L__stack_usage = 0
	.loc 1 243 0
	lds r24,editMode
	cpse r24,__zero_reg__
	.loc 1 244 0
	jmp editModeHandler
.LVL207:
.L199:
	.loc 1 247 0
	lds r24,keys
	andi r24,lo8(3)
	breq .L200
	.loc 1 249 0
	call lcdClear
.LVL208:
	.loc 1 250 0
	lds r24,currentPage+4
	lds r25,currentPage+4+1
	sbiw r24,0
	breq .L201
	.loc 1 251 0
	call lcdWriteString_P
.LVL209:
.L201:
	.loc 1 252 0
	ldi r24,0
	ldi r25,0
	call writeSoftkeys
.LVL210:
	.loc 1 253 0
	ldi r22,0
	ldi r24,0
	call lcdSetPos
.LVL211:
.L200:
	.loc 1 256 0
	lds r30,currentPage+2
	lds r31,currentPage+2+1
	sbiw r30,0
	breq .L198
	.loc 1 257 0
	ijmp
.LVL212:
.L198:
	ret
	.cfi_endproc
.LFE20:
	.size	defaultHandler, .-defaultHandler
	.section	.text.startEditMode,"ax",@progbits
	.type	startEditMode, @function
startEditMode:
.LFB22:
	.loc 1 300 0
	.cfi_startproc
.LVL213:
	push r16
.LCFI64:
	.cfi_def_cfa_offset 3
	.cfi_offset 16, -2
/* prologue: function */
/* frame size = 0 */
/* stack size = 1 */
.L__stack_usage = 1
	.loc 1 301 0
	ldi r19,lo8(1)
	sts editMode,r19
	.loc 1 302 0
	sts keys,r19
	.loc 1 303 0
	sts editValuePtr+1,r25
	sts editValuePtr,r24
	.loc 1 304 0
	sts editValueType,r18
	.loc 1 306 0
	cpse r18,__zero_reg__
	rjmp .L210
	.loc 1 307 0
	movw r30,r24
	ld r24,Z
.LVL214:
	ldi r25,0
	rjmp .L212
.LVL215:
.L210:
	.loc 1 308 0
	cpi r18,lo8(1)
	brne .L211
	.loc 1 309 0
	movw r30,r24
	ld r24,Z
.LVL216:
	clr r25
	sbrc r24,7
	com r25
.LVL217:
.L212:
	sts editValue+1,r25
	sts editValue,r24
.LVL218:
.L211:
	.loc 1 313 0
	sts editLoLimit+1,r23
	sts editLoLimit,r22
	.loc 1 314 0
	sts editHiLimit+1,r21
	sts editHiLimit,r20
	.loc 1 315 0
	lds r24,editValue
	lds r25,editValue+1
	sts editInitialValue+1,r25
	sts editInitialValue,r24
	.loc 1 317 0
	ldi r16,0
	ldi r18,lo8(34)
.LVL219:
	ldi r20,lo8(98)
.LVL220:
	ldi r22,lo8(11)
.LVL221:
	ldi r24,lo8(30)
	call lcdFillRectangle
.LVL222:
	.loc 1 318 0
	ldi r16,lo8(1)
	ldi r18,lo8(34)
	ldi r20,lo8(98)
	ldi r22,lo8(11)
	ldi r24,lo8(30)
	call lcdRectangle
.LVL223:
	.loc 1 319 0
	ldi r18,lo8(33)
	ldi r20,lo8(97)
	ldi r22,lo8(12)
	ldi r24,lo8(31)
	call lcdRectangle
.LVL224:
	.loc 1 320 0
	ldi r24,lo8(_skEDIT)
	ldi r25,hi8(_skEDIT)
	call writeSoftkeys
.LVL225:
	.loc 1 321 0
	ldi r24,lo8(font12x16)
	ldi r25,hi8(font12x16)
	call lcdSelectFont
.LVL226:
/* epilogue start */
	.loc 1 323 0
	pop r16
	.loc 1 322 0
	jmp editModeHandler
.LVL227:
	.cfi_endproc
.LFE22:
	.size	startEditMode, .-startEditMode
	.section	.text._hMixerEditor,"ax",@progbits
	.type	_hMixerEditor, @function
_hMixerEditor:
.LFB38:
	.loc 1 798 0
	.cfi_startproc
	push r16
.LCFI65:
	.cfi_def_cfa_offset 3
	.cfi_offset 16, -2
	push r17
.LCFI66:
	.cfi_def_cfa_offset 4
	.cfi_offset 17, -3
	push r28
.LCFI67:
	.cfi_def_cfa_offset 5
	.cfi_offset 28, -4
	push r29
.LCFI68:
	.cfi_def_cfa_offset 6
	.cfi_offset 29, -5
/* prologue: function */
/* frame size = 0 */
/* stack size = 4 */
.L__stack_usage = 4
	.loc 1 799 0
	lds r24,keys
	tst r24
	brne .+2
	rjmp .L213
	.loc 1 801 0
	sbrs r24,4
	rjmp .L215
	.loc 1 803 0
	lds r24,elementIndex
	lds r30,subpage
	cpse r24,__zero_reg__
	rjmp .L216
	.loc 1 804 0
	subi r30,lo8(-(1))
	andi r30,lo8(7)
	sts subpage,r30
	rjmp .L215
.L216:
	.loc 1 805 0
	cpi r24,lo8(6)
	brsh .L217
	.loc 1 807 0
	ldi r25,0
	ldi r18,lo8(6)
	mul r30,r18
	add r24,r0
	adc r25,r1
	clr __zero_reg__
	ldi r18,lo8(1)
	ldi r20,lo8(127)
	ldi r21,0
	ldi r22,lo8(-127)
	ldi r23,lo8(-1)
	subi r24,lo8(-(Config+71))
	sbci r25,hi8(-(Config+71))
/* epilogue start */
	.loc 1 838 0
	pop r29
	pop r28
	pop r17
	pop r16
	.loc 1 807 0
	jmp startEditMode
.LVL228:
.L217:
	.loc 1 810 0
	cpi r24,lo8(6)
	brne .L218
	.loc 1 812 0
	mul r24,r30
	movw r30,r0
	clr __zero_reg__
	movw r26,r30
	subi r26,lo8(-(Config+77))
	sbci r27,hi8(-(Config+77))
	ld r24,X
	cpse r24,__zero_reg__
	rjmp .L219
	.loc 1 813 0
	ldi r24,lo8(5)
	rjmp .L235
.L219:
	.loc 1 814 0
	subi r30,lo8(-(Config+77))
	sbci r31,hi8(-(Config+77))
	ld r24,Z
	sbrs r24,0
	rjmp .L220
	.loc 1 815 0
	ldi r24,lo8(2)
.L235:
	st X,r24
	rjmp .L215
.L220:
	.loc 1 817 0
	st X,__zero_reg__
	rjmp .L215
.L218:
	.loc 1 820 0
	ldi r24,lo8(6)
	mul r30,r24
	movw r30,r0
	clr __zero_reg__
	subi r30,lo8(-(Config+77))
	sbci r31,hi8(-(Config+77))
	ld r24,Z
	ldi r25,lo8(4)
	eor r24,r25
	st Z,r24
.L215:
	.loc 1 823 0
	ldi r24,lo8(8)
	call elementKey
.LVL229:
	.loc 1 824 0
	lds r20,subpage
	ldi r21,0
	subi r20,-1
	sbci r21,-1
	ldi r16,0
	ldi r18,lo8(1)
	ldi r22,lo8(120)
	ldi r24,0
	call writeValue
.LVL230:
	ldi r28,0
	ldi r29,0
.LBB103:
	.loc 1 826 0
	ldi r17,lo8(6)
.LVL231:
.L222:
	mov r16,r28
	subi r16,lo8(-(1))
	.loc 1 826 0 is_stmt 0 discriminator 2
	lds r24,subpage
	movw r30,r28
	mul r17,r24
	add r30,r0
	adc r31,r1
	clr __zero_reg__
	subi r30,lo8(-(Config+72))
	sbci r31,hi8(-(Config+72))
	ld r20,Z
	clr r21
	sbrc r20,7
	com r21
	ldi r18,lo8(4)
	ldi r22,lo8(60)
	mov r24,r28
	call writeValue
.LVL232:
	adiw r28,1
.LVL233:
	.loc 1 825 0 is_stmt 1 discriminator 2
	cpi r28,5
	cpc r29,__zero_reg__
	brne .L222
.LBE103:
	.loc 1 829 0
	lds r30,subpage
	ldi r18,lo8(6)
	mul r30,r18
	movw r30,r0
	clr __zero_reg__
	subi r30,lo8(-(Config+77))
	sbci r31,hi8(-(Config+77))
	ld r24,Z
	sbrc r24,0
	rjmp .L227
	.loc 1 831 0
	sbrs r24,1
	rjmp .L228
	.loc 1 832 0
	ldi r20,lo8(strServo)
	ldi r21,hi8(strServo)
	rjmp .L223
.L227:
	.loc 1 830 0
	ldi r20,lo8(strESC)
	ldi r21,hi8(strESC)
	rjmp .L223
.L228:
	.loc 1 834 0
	ldi r20,lo8(strOff)
	ldi r21,hi8(strOff)
.L223:
.LVL234:
	.loc 1 836 0
	ldi r16,lo8(6)
	ldi r18,lo8(5)
	ldi r22,lo8(36)
	ldi r24,lo8(5)
	call writeString_P
.LVL235:
	.loc 1 837 0
	lds r30,subpage
	ldi r24,lo8(6)
	mul r30,r24
	movw r30,r0
	clr __zero_reg__
	subi r30,lo8(-(Config+77))
	sbci r31,hi8(-(Config+77))
	ld r24,Z
	sbrs r24,0
	rjmp .L224
.L226:
	ldi r20,lo8(strHigh)
	ldi r21,hi8(strHigh)
	rjmp .L225
.L224:
	.loc 1 837 0 is_stmt 0 discriminator 2
	sbrc r24,2
	rjmp .L226
	.loc 1 837 0
	ldi r20,lo8(strLow)
	ldi r21,hi8(strLow)
.L225:
	.loc 1 837 0 discriminator 3
	ldi r16,lo8(7)
	ldi r18,lo8(3)
	ldi r22,lo8(108)
	ldi r24,lo8(5)
	call writeString_P
.LVL236:
.L213:
/* epilogue start */
	.loc 1 838 0 is_stmt 1
	pop r29
	pop r28
	pop r17
	pop r16
	ret
	.cfi_endproc
.LFE38:
	.size	_hMixerEditor, .-_hMixerEditor
	.section	.text._hCPPMSettings,"ax",@progbits
	.type	_hCPPMSettings, @function
_hCPPMSettings:
.LFB45:
	.loc 1 916 0
	.cfi_startproc
	push r14
.LCFI69:
	.cfi_def_cfa_offset 3
	.cfi_offset 14, -2
	push r15
.LCFI70:
	.cfi_def_cfa_offset 4
	.cfi_offset 15, -3
	push r16
.LCFI71:
	.cfi_def_cfa_offset 5
	.cfi_offset 16, -4
	push r17
.LCFI72:
	.cfi_def_cfa_offset 6
	.cfi_offset 17, -5
	push r28
.LCFI73:
	.cfi_def_cfa_offset 7
	.cfi_offset 28, -6
	push r29
.LCFI74:
	.cfi_def_cfa_offset 8
	.cfi_offset 29, -7
/* prologue: function */
/* frame size = 0 */
/* stack size = 6 */
.L__stack_usage = 6
	.loc 1 917 0
	lds r29,keys
	tst r29
	brne .+2
	rjmp .L236
.LBB109:
.LBB110:
	.loc 1 918 0
	lds r17,elementIndex
.LVL237:
	.loc 1 919 0
	ldi r24,lo8(8)
	call elementKey
.LVL238:
	.loc 1 920 0
	lds r28,elementIndex
	lsr r28
	lsr r28
.LVL239:
	andi r29,lo8(3)
	.loc 1 922 0
	brne .L239
	.loc 1 918 0
	lsr r17
	lsr r17
.LVL240:
	.loc 1 922 0
	cp r17,r28
	breq .L240
.LVL241:
.L239:
.LBB111:
.LBB112:
	.loc 1 905 0
	call lcdClear
.LVL242:
	.loc 1 906 0
	ldi r24,lo8(strCPPMSettings)
	ldi r25,hi8(strCPPMSettings)
	call lcdWriteString_P
.LVL243:
	.loc 1 907 0
	ldi r22,0
	ldi r24,lo8(2)
	call lcdSetPos
.LVL244:
	.loc 1 908 0
	cpse r28,__zero_reg__
	rjmp .L241
	.loc 1 909 0
	ldi r24,lo8(scrCPPMSettings1)
	ldi r25,hi8(scrCPPMSettings1)
	rjmp .L249
.L241:
	.loc 1 911 0
	ldi r24,lo8(scrCPPMSettings2)
	ldi r25,hi8(scrCPPMSettings2)
.L249:
	call lcdWriteString_P
.LVL245:
	.loc 1 912 0
	ldi r24,0
	ldi r25,0
	call writeSoftkeys
.LVL246:
.L240:
.LBE112:
.LBE111:
	.loc 1 925 0
	lds r24,keys
	mov r14,r28
	mov r15,__zero_reg__
	sbrs r24,4
	rjmp .L243
.LVL247:
	.loc 1 927 0
	movw r24,r14
	lsl r24
	rol r25
	lsl r24
	rol r25
	lds r18,elementIndex
	add r24,r18
	adc r25,__zero_reg__
	ldi r18,0
	ldi r20,lo8(8)
	ldi r21,0
	ldi r22,lo8(1)
	ldi r23,0
	subi r24,lo8(-(Config+16))
	sbci r25,hi8(-(Config+16))
/* epilogue start */
.LBE110:
.LBE109:
	.loc 1 933 0
	pop r29
	pop r28
	pop r17
	pop r16
	pop r15
	pop r14
.LVL248:
.LBB115:
.LBB114:
	.loc 1 927 0
	jmp startEditMode
.LVL249:
.L243:
.LBB113:
	.loc 1 932 0
	mov r17,r28
	lsl r17
	lsl r17
	lsl r14
	rol r15
	lsl r14
	rol r15
.LVL250:
	ldi r28,0
	ldi r29,0
.LVL251:
	movw r24,r14
	subi r24,lo8(-(Config))
	sbci r25,hi8(-(Config))
	movw r14,r24
.L245:
.LVL252:
	mov r16,r28
	add r16,r17
	movw r30,r14
	add r30,r28
	adc r31,r29
	ldd r20,Z+17
	ldi r21,0
	ldi r18,lo8(1)
	ldi r22,lo8(78)
	mov r24,r28
	subi r24,lo8(-(2))
	call writeValue
.LVL253:
	.loc 1 931 0
	adiw r28,1
.LVL254:
	cpi r28,4
	cpc r29,__zero_reg__
	brne .L245
.LVL255:
.L236:
/* epilogue start */
.LBE113:
.LBE114:
.LBE115:
	.loc 1 933 0
	pop r29
	pop r28
	pop r17
	pop r16
	pop r15
	pop r14
	ret
	.cfi_endproc
.LFE45:
	.size	_hCPPMSettings, .-_hCPPMSettings
	.section	.text.simplePageHandler,"ax",@progbits
	.type	simplePageHandler, @function
simplePageHandler:
.LFB39:
	.loc 1 841 0
	.cfi_startproc
.LVL256:
	push r13
.LCFI75:
	.cfi_def_cfa_offset 3
	.cfi_offset 13, -2
	push r14
.LCFI76:
	.cfi_def_cfa_offset 4
	.cfi_offset 14, -3
	push r15
.LCFI77:
	.cfi_def_cfa_offset 5
	.cfi_offset 15, -4
	push r16
.LCFI78:
	.cfi_def_cfa_offset 6
	.cfi_offset 16, -5
	push r17
.LCFI79:
	.cfi_def_cfa_offset 7
	.cfi_offset 17, -6
	push r28
.LCFI80:
	.cfi_def_cfa_offset 8
	.cfi_offset 28, -7
	push r29
.LCFI81:
	.cfi_def_cfa_offset 9
	.cfi_offset 29, -8
	in r28,__SP_L__
	in r29,__SP_H__
.LCFI82:
	.cfi_def_cfa_register 28
	sbiw r28,9
.LCFI83:
	.cfi_def_cfa_offset 18
	in __tmp_reg__,__SREG__
	cli
	out __SP_H__,r29
	out __SREG__,__tmp_reg__
	out __SP_L__,r28
/* prologue: function */
/* frame size = 9 */
/* stack size = 16 */
.L__stack_usage = 16
	movw r14,r24
	mov r13,r22
	.loc 1 842 0
	lds r17,keys
	tst r17
	breq .L250
	.loc 1 844 0
	mov r24,r22
.LVL257:
	call elementKey
.LVL258:
	.loc 1 845 0
	sbrc r17,4
	rjmp .L252
	ldi r17,0
.LVL259:
.L253:
.LBB120:
.LBB121:
.LBB122:
	.loc 1 851 0
	cp r17,r13
	breq .L250
	.loc 1 853 0
	ldi r20,lo8(9)
	ldi r21,0
	movw r22,r14
	movw r24,r28
	adiw r24,1
	call memcpy_P
.LVL260:
	.loc 1 854 0
	ldd r30,Y+3
	ldd r31,Y+4
	ld r20,Z
	ldi r21,0
	mov r16,r17
	ldd r18,Y+9
	ldd r22,Y+2
	ldd r24,Y+1
	call writeValue
.LVL261:
	.loc 1 851 0
	subi r17,lo8(-(1))
.LVL262:
	ldi r24,9
	add r14,r24
	adc r15,__zero_reg__
	rjmp .L253
.LVL263:
.L252:
.LBE122:
.LBE121:
.LBE120:
	.loc 1 847 0
	lds r24,elementIndex
	movw r22,r14
	ldi r25,lo8(9)
	mul r24,r25
	add r22,r0
	adc r23,r1
	clr __zero_reg__
	ldi r20,lo8(9)
	ldi r21,0
	movw r24,r28
	adiw r24,1
	call memcpy_P
.LVL264:
	.loc 1 848 0
	ldd r20,Y+7
	ldd r21,Y+8
	ldd r22,Y+5
	ldd r23,Y+6
	ldi r18,0
	ldd r24,Y+3
	ldd r25,Y+4
	call startEditMode
.LVL265:
.L250:
/* epilogue start */
	.loc 1 856 0
	adiw r28,9
	in __tmp_reg__,__SREG__
	cli
	out __SP_H__,r29
	out __SREG__,__tmp_reg__
	out __SP_L__,r28
	pop r29
	pop r28
	pop r17
	pop r16
	pop r15
	pop r14
	pop r13
.LVL266:
	ret
	.cfi_endproc
.LFE39:
	.size	simplePageHandler, .-simplePageHandler
	.section	.text._hCameraStabSettings,"ax",@progbits
	.type	_hCameraStabSettings, @function
_hCameraStabSettings:
.LFB43:
	.loc 1 893 0
	.cfi_startproc
/* prologue: function */
/* frame size = 0 */
/* stack size = 0 */
.L__stack_usage = 0
	.loc 1 900 0
	ldi r22,lo8(4)
	ldi r24,lo8(elements.2468)
	ldi r25,hi8(elements.2468)
	jmp simplePageHandler
.LVL267:
	.cfi_endproc
.LFE43:
	.size	_hCameraStabSettings, .-_hCameraStabSettings
	.section	.text._hSelflevelSettings,"ax",@progbits
	.type	_hSelflevelSettings, @function
_hSelflevelSettings:
.LFB42:
	.loc 1 882 0
	.cfi_startproc
/* prologue: function */
/* frame size = 0 */
/* stack size = 0 */
.L__stack_usage = 0
	.loc 1 889 0
	ldi r22,lo8(4)
	ldi r24,lo8(elements.2465)
	ldi r25,hi8(elements.2465)
	jmp simplePageHandler
.LVL268:
	.cfi_endproc
.LFE42:
	.size	_hSelflevelSettings, .-_hSelflevelSettings
	.section	.text._hMiscSettings,"ax",@progbits
	.type	_hMiscSettings, @function
_hMiscSettings:
.LFB41:
	.loc 1 870 0
	.cfi_startproc
/* prologue: function */
/* frame size = 0 */
/* stack size = 0 */
.L__stack_usage = 0
	.loc 1 878 0
	ldi r22,lo8(5)
	ldi r24,lo8(elements.2462)
	ldi r25,hi8(elements.2462)
	jmp simplePageHandler
.LVL269:
	.cfi_endproc
.LFE41:
	.size	_hMiscSettings, .-_hMiscSettings
	.section	.text._hStickScaling,"ax",@progbits
	.type	_hStickScaling, @function
_hStickScaling:
.LFB40:
	.loc 1 859 0
	.cfi_startproc
/* prologue: function */
/* frame size = 0 */
/* stack size = 0 */
.L__stack_usage = 0
	.loc 1 866 0
	ldi r22,lo8(4)
	ldi r24,lo8(elements.2459)
	ldi r25,hi8(elements.2459)
	jmp simplePageHandler
.LVL270:
	.cfi_endproc
.LFE40:
	.size	_hStickScaling, .-_hStickScaling
	.section	.text._hPIEditor,"ax",@progbits
	.type	_hPIEditor, @function
_hPIEditor:
.LFB37:
	.loc 1 761 0
	.cfi_startproc
	push r14
.LCFI84:
	.cfi_def_cfa_offset 3
	.cfi_offset 14, -2
	push r15
.LCFI85:
	.cfi_def_cfa_offset 4
	.cfi_offset 15, -3
	push r16
.LCFI86:
	.cfi_def_cfa_offset 5
	.cfi_offset 16, -4
	push r28
.LCFI87:
	.cfi_def_cfa_offset 6
	.cfi_offset 28, -5
	push r29
.LCFI88:
	.cfi_def_cfa_offset 7
	.cfi_offset 29, -6
/* prologue: function */
/* frame size = 0 */
/* stack size = 5 */
.L__stack_usage = 5
	.loc 1 762 0
	lds r29,keys
	tst r29
	brne .+2
	rjmp .L263
.LBB126:
.LBB127:
	.loc 1 764 0
	ldi r24,lo8(5)
	call elementKey
.LVL271:
	.loc 1 766 0
	lds r24,subpage
.LVL272:
	.loc 1 767 0
	lds r18,Config+53
	mov r28,r24
	cpse r18,__zero_reg__
	andi r28,lo8(-2)
.LVL273:
.L266:
	.loc 1 769 0
	sbrs r29,4
	rjmp .L267
	.loc 1 771 0
	lds r25,elementIndex
	cpse r25,__zero_reg__
	rjmp .L268
	.loc 1 773 0
	ldi r25,0
	adiw r24,1
	ldi r22,lo8(3)
	ldi r23,0
	call __divmodhi4
	mov r28,r24
.LVL274:
	sts subpage,r24
.LVL275:
	.loc 1 775 0
	tst r18
	breq .L267
	andi r28,lo8(-2)
.LVL276:
	rjmp .L267
.L268:
	.loc 1 779 0
	mov r24,r25
	ldi r25,0
	ldi r18,lo8(4)
	mul r28,r18
	add r24,r0
	adc r25,r1
	clr __zero_reg__
	ldi r18,0
	ldi r20,lo8(-56)
	ldi r21,0
	ldi r22,0
	ldi r23,0
	subi r24,lo8(-(Config+37))
	sbci r25,hi8(-(Config+37))
/* epilogue start */
.LBE127:
.LBE126:
	.loc 1 795 0
	pop r29
	pop r28
.LVL277:
	pop r16
	pop r15
	pop r14
.LBB130:
.LBB129:
	.loc 1 779 0
	jmp startEditMode
.LVL278:
.L267:
	.loc 1 784 0
	ldi r22,lo8(30)
	ldi r24,0
	call lcdSetPos
.LVL279:
	.loc 1 785 0
	ldi r24,lo8(1)
	lds r25,elementIndex
	cpse r25,__zero_reg__
	ldi r24,0
.L269:
	call lcdReverse
.LVL280:
	.loc 1 786 0
	lds r24,subpage
	tst r24
	breq .L271
	cpi r24,lo8(1)
	brne .L291
	.loc 1 789 0
	ldi r22,lo8(16)
	ldi r24,lo8(strPitchEle)
	ldi r25,hi8(strPitchEle)
	rjmp .L290
.L271:
	.loc 1 788 0
	ldi r22,lo8(16)
	ldi r24,lo8(strRollAil)
	ldi r25,hi8(strRollAil)
	rjmp .L290
.L291:
	.loc 1 790 0
	ldi r22,lo8(16)
	ldi r24,lo8(strYawRud)
	ldi r25,hi8(strYawRud)
.L290:
	call writePadded_P
.LVL281:
	ldi r24,lo8(4)
	mul r28,r24
	movw r14,r0
	clr __zero_reg__
	movw r24,r14
	subi r24,lo8(-(Config))
	sbci r25,hi8(-(Config))
	movw r14,r24
	.loc 1 766 0
	ldi r28,0
	ldi r29,0
.LVL282:
.L275:
	mov r16,r28
	subi r16,lo8(-(1))
	movw r30,r14
	add r30,r28
	adc r31,r29
.LBB128:
	.loc 1 794 0
	ldd r20,Z+38
	ldi r21,0
	ldi r18,lo8(5)
	ldi r22,lo8(60)
	mov r24,r28
	subi r24,lo8(-(2))
	call writeValue
.LVL283:
	adiw r28,1
.LVL284:
	.loc 1 793 0
	cpi r28,4
	cpc r29,__zero_reg__
	brne .L275
.LVL285:
.L263:
/* epilogue start */
.LBE128:
.LBE129:
.LBE130:
	.loc 1 795 0
	pop r29
	pop r28
	pop r16
	pop r15
	pop r14
	ret
	.cfi_endproc
.LFE37:
	.size	_hPIEditor, .-_hPIEditor
	.section	.text._hStart,"ax",@progbits
	.type	_hStart, @function
_hStart:
.LFB28:
	.loc 1 479 0
	.cfi_startproc
	push r15
.LCFI89:
	.cfi_def_cfa_offset 3
	.cfi_offset 15, -2
	push r16
.LCFI90:
	.cfi_def_cfa_offset 4
	.cfi_offset 16, -3
	push r17
.LCFI91:
	.cfi_def_cfa_offset 5
	.cfi_offset 17, -4
	push r28
.LCFI92:
	.cfi_def_cfa_offset 6
	.cfi_offset 28, -5
	push r29
.LCFI93:
	.cfi_def_cfa_offset 7
	.cfi_offset 29, -6
	in r28,__SP_L__
	in r29,__SP_H__
.LCFI94:
	.cfi_def_cfa_register 28
	sbiw r28,7
.LCFI95:
	.cfi_def_cfa_offset 14
	in __tmp_reg__,__SREG__
	cli
	out __SP_H__,r29
	out __SREG__,__tmp_reg__
	out __SP_L__,r28
/* prologue: function */
/* frame size = 7 */
/* stack size = 12 */
.L__stack_usage = 12
	.loc 1 481 0
	lds r24,keys
	sbrs r24,4
	rjmp .L293
	.loc 1 483 0
	ldi r24,0
	call arm
.LVL286:
	.loc 1 484 0
	ldi r24,lo8(1)
	call loadPage
.LVL287:
	.loc 1 485 0
	rjmp .L292
.L293:
	andi r24,lo8(3)
	.loc 1 488 0
	breq .L295
	.loc 1 490 0
	lds r24,Config+51
	tst r24
	breq .L296
	.loc 1 491 0
	ldi r24,lo8(1)
	call arm
.LVL288:
.L296:
	.loc 1 493 0
	lds r24,State
	.loc 1 495 0
	ldi r22,lo8(36)
	.loc 1 493 0
	tst r24
	breq .L297
	.loc 1 495 0
	ldi r24,lo8(3)
	call lcdSetPos
.LVL289:
	.loc 1 496 0
	ldi r24,lo8(font12x16)
	ldi r25,hi8(font12x16)
	call lcdSelectFont
.LVL290:
	.loc 1 497 0
	ldi r24,lo8(strARMED)
	ldi r25,hi8(strARMED)
	call lcdWriteString_P
.LVL291:
	.loc 1 498 0
	ldi r24,0
	ldi r25,0
	call lcdSelectFont
.LVL292:
	.loc 1 499 0
	rjmp .L292
.L297:
	.loc 1 503 0
	ldi r24,0
	call lcdSetPos
.LVL293:
	.loc 1 504 0
	ldi r24,lo8(font12x16)
	ldi r25,hi8(font12x16)
	call lcdSelectFont
.LVL294:
	.loc 1 505 0
	ldi r24,lo8(strSAFE)
	ldi r25,hi8(strSAFE)
	call lcdWriteString_P
.LVL295:
	.loc 1 506 0
	ldi r24,0
	ldi r25,0
	call lcdSelectFont
.LVL296:
	.loc 1 507 0
	ldi r22,0
	ldi r24,lo8(2)
	call lcdSetPos
.LVL297:
	.loc 1 508 0
	ldi r24,lo8(scrStart)
	ldi r25,hi8(scrStart)
	call lcdWriteString_P
.LVL298:
.L295:
	.loc 1 512 0
	lds r24,State
	cpse r24,__zero_reg__
	rjmp .L292
	.loc 1 514 0
	ldi r22,lo8(84)
	ldi r24,lo8(2)
	call lcdSetPos
.LVL299:
	.loc 1 515 0
	lds r24,State+2
	.loc 1 516 0
	ldi r22,lo8(3)
	.loc 1 515 0
	tst r24
	breq .L299
	.loc 1 516 0
	ldi r24,lo8(strON)
	ldi r25,hi8(strON)
	rjmp .L316
.L299:
	.loc 1 518 0
	ldi r24,lo8(strOFF)
	ldi r25,hi8(strOFF)
.L316:
	call writePadded_P
.LVL300:
	.loc 1 520 0
	ldi r22,0
	ldi r24,lo8(3)
	call lcdSetPos
.LVL301:
	.loc 1 521 0
	lds r24,State+7
	tst r24
	breq .L301
	.loc 1 523 0
	ldi r24,lo8(strError)
	ldi r25,hi8(strError)
	call lcdWriteString_P
.LVL302:
	.loc 1 524 0
	ldi r24,lo8(32)
	call lcdWriteChar
.LVL303:
	.loc 1 525 0
	lds r24,State+7
	sbrs r24,7
	rjmp .L302
	.loc 1 526 0
	ldi r24,lo8(strSensorNotCal)
	ldi r25,hi8(strSensorNotCal)
	rjmp .L317
.L302:
.LBB144:
	.loc 1 529 0
	ldi r24,lo8(__c.2386)
	ldi r25,hi8(__c.2386)
	call lcdWriteString_P
.LVL304:
	.loc 1 531 0
	lds r24,State+7
	mov r25,r24
	andi r25,lo8(15)
	cpi r25,lo8(15)
	breq .L306
	.loc 1 533 0
	sbrc r24,0
	rjmp .L307
	.loc 1 535 0
	sbrc r24,1
	rjmp .L308
	.loc 1 537 0
	sbrs r24,2
	rjmp .L309
	.loc 1 538 0
	ldi r24,lo8(strYaw)
	ldi r25,hi8(strYaw)
	rjmp .L304
.L306:
	.loc 1 532 0
	ldi r24,lo8(__c.2389)
	ldi r25,hi8(__c.2389)
	rjmp .L304
.L307:
	.loc 1 534 0
	ldi r24,lo8(strRoll)
	ldi r25,hi8(strRoll)
	rjmp .L304
.L308:
	.loc 1 536 0
	ldi r24,lo8(strPitch)
	ldi r25,hi8(strPitch)
	rjmp .L304
.L309:
	.loc 1 540 0
	ldi r24,lo8(strThro)
	ldi r25,hi8(strThro)
.L304:
.LVL305:
	.loc 1 541 0
	call lcdWriteString_P
.LVL306:
	.loc 1 542 0
	ldi r24,lo8(__c.2391)
	ldi r25,hi8(__c.2391)
	rjmp .L317
.L301:
.LBE144:
	.loc 1 546 0
	ldi r24,lo8(__c.2393)
	ldi r25,hi8(__c.2393)
.L317:
	call lcdWriteString_P
.LVL307:
	.loc 1 549 0
	ldi r22,lo8(78)
	ldi r24,lo8(4)
	call lcdSetPos
.LVL308:
	.loc 1 550 0
	lds r24,BATT
	ldi r26,lo8(10)
	mov r15,r26
	mov r22,r15
	call __udivmodqi4
.LBB145:
.LBB146:
	.loc 3 516 0
	ldi r20,lo8(10)
	movw r16,r28
	subi r16,-1
	sbci r17,-1
	movw r22,r16
	ldi r25,0
	call __utoa_ncheck
.LVL309:
.LBE146:
.LBE145:
	.loc 1 551 0
	movw r24,r16
	call lcdWriteString
.LVL310:
	.loc 1 552 0
	ldi r24,lo8(46)
	call lcdWriteChar
.LVL311:
	.loc 1 553 0
	lds r24,BATT
	mov r22,r15
	call __udivmodqi4
.LBB147:
.LBB148:
	.loc 3 516 0
	ldi r20,lo8(10)
	movw r22,r16
	mov r24,r25
	ldi r25,0
	call __utoa_ncheck
.LVL312:
.LBE148:
.LBE147:
.LBB149:
.LBB150:
	.loc 1 184 0
	movw r24,r16
	call lcdWriteString
.LVL313:
	.loc 1 185 0
	movw r30,r16
	0:
	ld __tmp_reg__,Z+
	tst __tmp_reg__
	brne 0b
	mov r24,r16
	sub r24,r30
	subi r24,lo8(-(4))
	call writeSpace
.LVL314:
.LBE150:
.LBE149:
	.loc 1 557 0
	lds r20,ANGLE+1
	mov r21,r20
	lsl r21
	sbc r21,r21
	ldi r16,lo8(-1)
	ldi r18,lo8(7)
	ldi r22,lo8(78)
	ldi r24,lo8(5)
	call writeValue
.LVL315:
	.loc 1 560 0
	lds r20,ANGLE+3
	mov r21,r20
	lsl r21
	sbc r21,r21
	ldi r18,lo8(7)
	ldi r22,lo8(78)
	ldi r24,lo8(6)
	call writeValue
.LVL316:
.L292:
/* epilogue start */
	.loc 1 562 0
	adiw r28,7
	in __tmp_reg__,__SREG__
	cli
	out __SP_H__,r29
	out __SREG__,__tmp_reg__
	out __SP_L__,r28
	pop r29
	pop r28
	pop r17
	pop r16
	pop r15
	ret
	.cfi_endproc
.LFE28:
	.size	_hStart, .-_hStart
	.section	.text.menuLoop,"ax",@progbits
.global	menuLoop
	.type	menuLoop, @function
menuLoop:
.LFB46:
	.loc 1 936 0
	.cfi_startproc
/* prologue: function */
/* frame size = 0 */
/* stack size = 0 */
.L__stack_usage = 0
	.loc 1 937 0
	lds r24,keys
	cpse r24,__zero_reg__
	rjmp .L319
	.loc 1 938 0
	call keyboardRead
.LVL317:
	sts keys,r24
.L319:
	.loc 1 940 0
	lds r24,keys
	sbrs r24,7
	rjmp .L320
	.loc 1 940 0 is_stmt 0 discriminator 1
	lds r24,editMode
	cpse r24,__zero_reg__
	rjmp .L320
	.loc 1 942 0 is_stmt 1
	lds r24,menuPage
	cpi r24,lo8(2)
	brlo .L321
	.loc 1 943 0
	ldi r24,lo8(1)
	rjmp .L326
.L321:
	.loc 1 944 0
	cpi r24,lo8(1)
	brne .L320
	.loc 1 946 0
	call configSave
.LVL318:
	.loc 1 947 0
	ldi r24,0
.L326:
	call loadPage
.LVL319:
.L320:
	.loc 1 951 0
	lds r24,keys
	sbrs r24,2
	rjmp .L322
	.loc 1 952 0
	ldi r24,lo8(1)
	sts keys,r24
.L322:
	.loc 1 953 0
	call defaultHandler
.LVL320:
	.loc 1 954 0
	lds r24,keys
	andi r24,lo8(4)
	sts keys,r24
	ret
	.cfi_endproc
.LFE46:
	.size	menuLoop, .-menuLoop
	.section	.text.menuInit,"ax",@progbits
.global	menuInit
	.type	menuInit, @function
menuInit:
.LFB47:
	.loc 1 958 0
	.cfi_startproc
/* prologue: function */
/* frame size = 0 */
/* stack size = 0 */
.L__stack_usage = 0
	.loc 1 959 0
	ldi r24,0
	jmp loadPage
.LVL321:
	.cfi_endproc
.LFE47:
	.size	menuInit, .-menuInit
	.section	.text.menuRefresh,"ax",@progbits
.global	menuRefresh
	.type	menuRefresh, @function
menuRefresh:
.LFB48:
	.loc 1 963 0
	.cfi_startproc
/* prologue: function */
/* frame size = 0 */
/* stack size = 0 */
.L__stack_usage = 0
	.loc 1 964 0
	lds r24,keys
	ori r24,lo8(2)
	sts keys,r24
	.loc 1 965 0
	jmp menuLoop
.LVL322:
	.cfi_endproc
.LFE48:
	.size	menuRefresh, .-menuRefresh
	.section	.progmem.data.__c.2393,"a",@progbits
	.type	__c.2393, @object
	.size	__c.2393, 21
__c.2393:
	.string	"Ready for departure!"
	.section	.progmem.data.__c.2391,"a",@progbits
	.type	__c.2391, @object
	.size	__c.2391, 7
__c.2391:
	.string	" input"
	.section	.progmem.data.__c.2389,"a",@progbits
	.type	__c.2389, @object
	.size	__c.2389, 3
__c.2389:
	.string	"RX"
	.section	.progmem.data.__c.2386,"a",@progbits
	.type	__c.2386, @object
	.size	__c.2386, 4
__c.2386:
	.string	"no "
	.section	.progmem.data.info.2403,"a",@progbits
	.type	info.2403, @object
	.size	info.2403, 24
info.2403:
	.word	strLeft
	.word	strRight
	.word	strForward
	.word	strBack
	.word	strRight
	.word	strLeft
	.word	strIdle
	.word	strFull
	.word	strOff
	.word	strOn
	.word	strOff
	.word	strOn
	.section	.progmem.data.elements.2459,"a",@progbits
	.type	elements.2459, @object
	.size	elements.2459, 36
elements.2459:
	.byte	2
	.byte	78
	.word	Config+56
	.word	0
	.word	200
	.byte	5
	.byte	3
	.byte	78
	.word	Config+57
	.word	0
	.word	200
	.byte	5
	.byte	4
	.byte	78
	.word	Config+58
	.word	0
	.word	200
	.byte	5
	.byte	5
	.byte	78
	.word	Config+59
	.word	0
	.word	200
	.byte	5
	.section	.progmem.data.elements.2462,"a",@progbits
	.type	elements.2462, @object
	.size	elements.2462, 45
elements.2462:
	.byte	0
	.byte	102
	.word	Config+60
	.word	0
	.word	20
	.byte	4
	.byte	1
	.byte	102
	.word	Config+62
	.word	0
	.word	250
	.byte	4
	.byte	2
	.byte	102
	.word	Config+63
	.word	0
	.word	30
	.byte	4
	.byte	3
	.byte	102
	.word	Config+64
	.word	0
	.word	250
	.byte	4
	.byte	4
	.byte	102
	.word	Config+65
	.word	0
	.word	100
	.byte	4
	.section	.progmem.data.elements.2465,"a",@progbits
	.type	elements.2465, @object
	.size	elements.2465, 36
elements.2465:
	.byte	0
	.byte	54
	.word	Config+66
	.word	0
	.word	250
	.byte	5
	.byte	1
	.byte	54
	.word	Config+67
	.word	0
	.word	250
	.byte	5
	.byte	3
	.byte	96
	.word	Config+70
	.word	-45
	.word	45
	.byte	5
	.byte	4
	.byte	96
	.word	Config+71
	.word	-45
	.word	45
	.byte	5
	.section	.progmem.data.elements.2468,"a",@progbits
	.type	elements.2468, @object
	.size	elements.2468, 36
elements.2468:
	.byte	2
	.byte	84
	.word	Config+120
	.word	-128
	.word	127
	.byte	5
	.byte	3
	.byte	84
	.word	Config+121
	.word	-128
	.word	127
	.byte	5
	.byte	4
	.byte	84
	.word	Config+122
	.word	-128
	.word	127
	.byte	5
	.byte	5
	.byte	84
	.word	Config+123
	.word	-128
	.word	127
	.byte	5
	.section	.bss.editValuePtr,"aw",@nobits
	.type	editValuePtr, @object
	.size	editValuePtr, 2
editValuePtr:
	.zero	2
	.section	.bss.editValueType,"aw",@nobits
	.type	editValueType, @object
	.size	editValueType, 1
editValueType:
	.zero	1
	.section	.bss.editMode,"aw",@nobits
	.type	editMode, @object
	.size	editMode, 1
editMode:
	.zero	1
	.section	.bss.editInitialValue,"aw",@nobits
	.type	editInitialValue, @object
	.size	editInitialValue, 2
editInitialValue:
	.zero	2
	.section	.bss.editHiLimit,"aw",@nobits
	.type	editHiLimit, @object
	.size	editHiLimit, 2
editHiLimit:
	.zero	2
	.section	.bss.editLoLimit,"aw",@nobits
	.type	editLoLimit, @object
	.size	editLoLimit, 2
editLoLimit:
	.zero	2
	.section	.bss.editValue,"aw",@nobits
	.type	editValue, @object
	.size	editValue, 2
editValue:
	.zero	2
	.section	.data.mnuMLayout,"aw",@progbits
	.type	mnuMLayout, @object
	.size	mnuMLayout, 5
mnuMLayout:
	.byte	22
	.word	gs(tsmLoadModelLayout)
	.zero	2
	.section	.data.mnuMain,"aw",@progbits
	.type	mnuMain, @object
	.size	mnuMain, 5
mnuMain:
	.byte	17
	.word	gs(tsmMain)
	.zero	2
	.section	.bss.currentPage,"aw",@nobits
	.type	currentPage, @object
	.size	currentPage, 6
currentPage:
	.zero	6
	.section	.bss._tStart,"aw",@nobits
	.type	_tStart, @object
	.size	_tStart, 2
_tStart:
	.zero	2
	.section	.bss.subpage,"aw",@nobits
	.type	subpage, @object
	.size	subpage, 1
subpage:
	.zero	1
	.section	.bss.elementIndex,"aw",@nobits
	.type	elementIndex, @object
	.size	elementIndex, 1
elementIndex:
	.zero	1
	.comm	menuPage,1,1
	.section	.progmem.data.lstMenu,"a",@progbits
	.type	lstMenu, @object
	.size	lstMenu, 34
lstMenu:
	.word	strPIEditor
	.word	strReceiverTest
	.word	strModeSettings
	.word	strStickScaling
	.word	strMiscSettings
	.word	strSelflevelSettings
	.word	strCameraStabSerrings
	.word	strSensorTest
	.word	strSensorCalibration
	.word	strESCCalibration
	.word	strCPPMSettings
	.word	strRadioCalibration
	.word	strMixerEditor
	.word	strShowMotorLayout
	.word	strLoadMotorLayout
	.word	strFactoryReset
	.word	strDebug
	.section	.progmem.data.pages,"a",@progbits
	.type	pages, @object
	.size	pages, 114
pages:
	.word	_skSTART
	.word	gs(_hStart)
	.zero	2
	.word	_skMENU
	.word	gs(_hMenu)
	.zero	2
	.word	_skPAGE
	.word	gs(_hPIEditor)
	.word	scrPIEditor
	.word	_skBACK
	.word	gs(_hReceiverTest)
	.word	scrReceiverTest
	.word	_skPAGE
	.word	gs(_hModeSettings)
	.word	scrModeSettings
	.word	_skPAGE
	.word	gs(_hStickScaling)
	.word	scrStickScaling
	.word	_skPAGE
	.word	gs(_hMiscSettings)
	.word	scrMiscSettings
	.word	_skPAGE
	.word	gs(_hSelflevelSettings)
	.word	scrSelflevelSettings
	.word	_skPAGE
	.word	gs(_hCameraStabSettings)
	.word	scrCameraStabSettings
	.word	_skBACK
	.word	gs(_hSensorTest)
	.word	scrSensorTest
	.word	_skCONTINUE
	.word	gs(_hSensorCalibration)
	.word	scrSensorCal0
	.word	_skCONTINUE
	.word	gs(_hESCCalibration)
	.word	scrESCCal0
	.word	_skPAGE
	.word	gs(_hCPPMSettings)
	.zero	2
	.word	_skCONTINUE
	.word	gs(_hStickCentering)
	.zero	2
	.word	_skPAGE
	.word	gs(_hMixerEditor)
	.word	scrMixerEditor
	.word	_skBACKNEXT
	.word	gs(_hShowModelLayout)
	.zero	2
	.word	_skMENU
	.word	gs(_hLoadModelLayout)
	.zero	2
	.word	_skCANCELYES
	.word	gs(_hFactoryReset)
	.zero	2
	.word	_skBACK
	.word	gs(_hDebug)
	.word	scrDebug
	.section	.progmem.data._skCANCEL,"a",@progbits
	.type	_skCANCEL, @object
	.size	_skCANCEL, 7
_skCANCEL:
	.string	"CANCEL"
	.section	.progmem.data._skBACKNEXT,"a",@progbits
	.type	_skBACKNEXT, @object
	.size	_skBACKNEXT, 11
_skBACKNEXT:
	.string	"BACK  NEXT"
	.section	.progmem.data._skEDIT,"a",@progbits
	.type	_skEDIT, @object
	.size	_skEDIT, 22
_skEDIT:
	.string	"CLR  DOWN   UP   DONE"
	.section	.progmem.data._skPAGE,"a",@progbits
	.type	_skPAGE, @object
	.size	_skPAGE, 22
_skPAGE:
	.string	"BACK PREV NEXT CHANGE"
	.section	.progmem.data._skCANCELYES,"a",@progbits
	.type	_skCANCELYES, @object
	.size	_skCANCELYES, 22
_skCANCELYES:
	.string	"CANCEL            YES"
	.section	.progmem.data._skCONTINUE,"a",@progbits
	.type	_skCONTINUE, @object
	.size	_skCONTINUE, 22
_skCONTINUE:
	.string	"BACK         CONTINUE"
	.section	.progmem.data._skBACK,"a",@progbits
	.type	_skBACK, @object
	.size	_skBACK, 5
_skBACK:
	.string	"BACK"
	.section	.progmem.data._skMENU,"a",@progbits
	.type	_skMENU, @object
	.size	_skMENU, 22
_skMENU:
	.string	"BACK  UP   DOWN ENTER"
	.section	.progmem.data._skSTART,"a",@progbits
	.type	_skSTART, @object
	.size	_skSTART, 22
_skSTART:
	.string	"                 MENU"
	.section	.progmem.data.scrDebug,"a",@progbits
	.type	scrDebug, @object
	.size	scrDebug, 52
scrDebug:
	.string	"MixerIndex:\nChannel0:\nChannel1:\nChannel2:\nChannel3:"
	.section	.progmem.data.scrMixerEditor,"a",@progbits
	.type	scrMixerEditor, @object
	.size	scrMixerEditor, 73
scrMixerEditor:
	.string	"Throttle:       Ch:\nAileron:\nElevator:\nRudder:\nOffset:\nType:       Rate:"
	.section	.progmem.data.scrRadioCal2,"a",@progbits
	.type	scrRadioCal2, @object
	.size	scrRadioCal2, 77
scrRadioCal2:
	.string	"Calibration failed.\n\nMake sure the sticks\nare released and\nthrottle is idle."
	.section	.progmem.data.scrRadioCal1,"a",@progbits
	.type	scrRadioCal1, @object
	.size	scrRadioCal1, 75
scrRadioCal1:
	.string	"\nCheck the correct\nsignals from\nreceiver.\nOne or more signals\nare missing."
	.section	.progmem.data.scrRadioCal0,"a",@progbits
	.type	scrRadioCal0, @object
	.size	scrRadioCal0, 91
scrRadioCal0:
	.string	"Release sticks on the\ntransmitter and set \nthrottle to idle.\n\nPress CONTINUE to\ncalibrate."
	.section	.progmem.data.scrESCCal,"a",@progbits
	.type	scrESCCal, @object
	.size	scrESCCal, 12
scrESCCal:
	.word	scrESCCal0
	.word	scrESCCal1
	.word	scrESCCal2
	.word	scrESCCal3
	.word	scrESCCal4
	.word	scrESCCal5
	.section	.progmem.data.scrESCCal5,"a",@progbits
	.type	scrESCCal5, @object
	.size	scrESCCal5, 77
scrESCCal5:
	.string	"  'Minimum throttle'\n  in the 'Misc. Set-\n  tings menu.\n\n  You are now done!"
	.section	.progmem.data.scrESCCal4,"a",@progbits
	.type	scrESCCal4, @object
	.size	scrESCCal4, 121
scrESCCal4:
	.string	"  calibration sound.\n12 Release the\n  buttons.\n13 Check if the mot-\n  ors start at the\n  same time. If not,\n  adjust the"
	.section	.progmem.data.scrESCCal3,"a",@progbits
	.type	scrESCCal3, @object
	.size	scrESCCal3, 111
scrESCCal3:
	.string	"9 Wait for the ESCs\n  full-throttle cali-\n  bration sound.\n10 Set the throttle\n  to idle.\n11 Wait for the idle"
	.section	.progmem.data.scrESCCal2,"a",@progbits
	.type	scrESCCal2, @object
	.size	scrESCCal2, 122
scrESCCal2:
	.string	"6 Set the throttle to\n  full.\n7 Press down buttons\n  1 and 4 and keep\n  them down until the\n  last step.\n8 Turn on power."
	.section	.progmem.data.scrESCCal1,"a",@progbits
	.type	scrESCCal1, @object
	.size	scrESCCal1, 139
scrESCCal1:
	.string	"3 Memorize the rest\n  of the instructions\n  because the next\n  step is to turn off\n  the power.\n4 Turn off the power.\n5 Turn on the radio."
	.section	.progmem.data.scrESCCal0,"a",@progbits
	.type	scrESCCal0, @object
	.size	scrESCCal0, 118
scrESCCal0:
	.string	"1 TAKE OFF THE\n  PROPELLERS!!\n2 Check the throttle\n  direction in the\n  receiver test menu.\n  Reverse if\n  necessary."
	.section	.progmem.data.scrSensorCal0,"a",@progbits
	.type	scrSensorCal0, @object
	.size	scrSensorCal0, 119
scrSensorCal0:
	.string	"Place the aircraft on\na level surface and\npress CONTINUE.\nThe FC will then wait\n5 sec to let the\naircraft settle down."
	.section	.progmem.data.scrCPPMSettings2,"a",@progbits
	.type	scrCPPMSettings2, @object
	.size	scrCPPMSettings2, 24
scrCPPMSettings2:
	.string	"Aux1:\nAux2:\nAux3:\nAux4:"
	.section	.progmem.data.scrCPPMSettings1,"a",@progbits
	.type	scrCPPMSettings1, @object
	.size	scrCPPMSettings1, 46
scrCPPMSettings1:
	.string	"Roll (Ail):\nPitch (Ele):\nYaw (Rud):\nThrottle:"
	.section	.progmem.data.scrCameraStabSettings,"a",@progbits
	.type	scrCameraStabSettings, @object
	.size	scrCameraStabSettings, 70
scrCameraStabSettings:
	.string	"Camera Stab Setup\n\nRoll gain:\nRoll offset:\nPitch gain:\nPitch offset:\n"
	.section	.progmem.data.scrSelflevelSettings,"a",@progbits
	.type	scrSelflevelSettings, @object
	.size	scrSelflevelSettings, 49
scrSelflevelSettings:
	.string	"P Gain:\nP Limit:\n\nAcc Trim Roll:\nAcc Trim Pitch:"
	.section	.progmem.data.scrMiscSettings,"a",@progbits
	.type	scrMiscSettings, @object
	.size	scrMiscSettings, 85
scrMiscSettings:
	.string	"Minimum throttle:\nHeight Dampening:\nHeight D. Limit:\nAlarm 1/10 volts:\nServo filter:"
	.section	.progmem.data.scrStickScaling,"a",@progbits
	.type	scrStickScaling, @object
	.size	scrStickScaling, 61
scrStickScaling:
	.string	"Stick Scaling\n\nRoll (Ail):\nPitch (Ele):\nYaw (Rud):\nThrottle:"
	.section	.progmem.data.scrModeSettings,"a",@progbits
	.type	scrModeSettings, @object
	.size	scrModeSettings, 64
scrModeSettings:
	.string	"Self-Level:\nArming:\nLink Roll Pitch:\nAuto Disarm:\nCPPM Enabled:"
	.section	.progmem.data.scrSensorTest,"a",@progbits
	.type	scrSensorTest, @object
	.size	scrSensorTest, 54
scrSensorTest:
	.string	"Gyro X:\nGyro Y:\nGyro Z:\nAcc  X:\nAcc  Y:\nAcc  Z:\nBatt:"
	.section	.progmem.data.scrReceiverTest,"a",@progbits
	.type	scrReceiverTest, @object
	.size	scrReceiverTest, 49
scrReceiverTest:
	.string	"Aileron:\nElevator:\nRudder:\nThrottle:\nAux1:\nAux2:"
	.section	.progmem.data.scrPIEditor,"a",@progbits
	.type	scrPIEditor, @object
	.size	scrPIEditor, 41
scrPIEditor:
	.string	"Axis:\n\nP Gain:\nP Limit:\nI Gain:\nI Limit:"
	.section	.progmem.data.scrStart,"a",@progbits
	.type	scrStart, @object
	.size	scrStart, 49
scrStart:
	.string	"Self-level is\n\nBattery:\nRoll angle:\nPitch angle:"
	.section	.progmem.data.strSensorNotCal,"a",@progbits
	.type	strSensorNotCal, @object
	.size	strSensorNotCal, 15
strSensorNotCal:
	.string	"no calibration"
	.section	.progmem.data.strUnused,"a",@progbits
	.type	strUnused, @object
	.size	strUnused, 8
strUnused:
	.string	"Unused."
	.section	.progmem.data.strALL,"a",@progbits
	.type	strALL, @object
	.size	strALL, 4
strALL:
	.string	"ALL"
	.section	.progmem.data.strCCW,"a",@progbits
	.type	strCCW, @object
	.size	strCCW, 4
strCCW:
	.string	"CCW"
	.section	.progmem.data.strCW,"a",@progbits
	.type	strCW, @object
	.size	strCW, 3
strCW:
	.string	"CW"
	.section	.progmem.data.strDirSeen,"a",@progbits
	.type	strDirSeen, @object
	.size	strDirSeen, 27
strDirSeen:
	.string	"Direction\nseen from\nabove:"
	.section	.progmem.data.strOutput,"a",@progbits
	.type	strOutput, @object
	.size	strOutput, 8
strOutput:
	.string	"Output:"
	.section	.progmem.data.strAreYouSure,"a",@progbits
	.type	strAreYouSure, @object
	.size	strAreYouSure, 14
strAreYouSure:
	.string	"Are you sure?"
	.section	.progmem.data.strCalSucc,"a",@progbits
	.type	strCalSucc, @object
	.size	strCalSucc, 22
strCalSucc:
	.string	"Calibration succeeded"
	.section	.progmem.data.strSec,"a",@progbits
	.type	strSec, @object
	.size	strSec, 4
strSec:
	.string	"sec"
	.section	.progmem.data.strWait,"a",@progbits
	.type	strWait, @object
	.size	strWait, 8
strWait:
	.string	"Waiting"
	.section	.progmem.data.strThro,"a",@progbits
	.type	strThro, @object
	.size	strThro, 5
strThro:
	.string	"Thro"
	.section	.progmem.data.strYaw,"a",@progbits
	.type	strYaw, @object
	.size	strYaw, 4
strYaw:
	.string	"Yaw"
	.section	.progmem.data.strPitch,"a",@progbits
	.type	strPitch, @object
	.size	strPitch, 6
strPitch:
	.string	"Pitch"
	.section	.progmem.data.strRoll,"a",@progbits
	.type	strRoll, @object
	.size	strRoll, 5
strRoll:
	.string	"Roll"
	.section	.progmem.data.strError,"a",@progbits
	.type	strError, @object
	.size	strError, 7
strError:
	.string	"Error:"
	.section	.progmem.data.strOff,"a",@progbits
	.type	strOff, @object
	.size	strOff, 4
strOff:
	.string	"Off"
	.section	.progmem.data.strOn,"a",@progbits
	.type	strOn, @object
	.size	strOn, 3
strOn:
	.string	"On"
	.section	.progmem.data.strFull,"a",@progbits
	.type	strFull, @object
	.size	strFull, 5
strFull:
	.string	"Full"
	.section	.progmem.data.strIdle,"a",@progbits
	.type	strIdle, @object
	.size	strIdle, 5
strIdle:
	.string	"Idle"
	.section	.progmem.data.strForward,"a",@progbits
	.type	strForward, @object
	.size	strForward, 6
strForward:
	.string	"Frwrd"
	.section	.progmem.data.strBack,"a",@progbits
	.type	strBack, @object
	.size	strBack, 5
strBack:
	.string	"Back"
	.section	.progmem.data.strRight,"a",@progbits
	.type	strRight, @object
	.size	strRight, 6
strRight:
	.string	"Right"
	.section	.progmem.data.strLeft,"a",@progbits
	.type	strLeft, @object
	.size	strLeft, 5
strLeft:
	.string	"Left"
	.section	.progmem.data.strNoSignal,"a",@progbits
	.type	strNoSignal, @object
	.size	strNoSignal, 10
strNoSignal:
	.string	"No signal"
	.section	.progmem.data.strLow,"a",@progbits
	.type	strLow, @object
	.size	strLow, 3
strLow:
	.string	"Lo"
	.section	.progmem.data.strHigh,"a",@progbits
	.type	strHigh, @object
	.size	strHigh, 3
strHigh:
	.string	"Hi"
	.section	.progmem.data.strServo,"a",@progbits
	.type	strServo, @object
	.size	strServo, 6
strServo:
	.string	"Servo"
	.section	.progmem.data.strESC,"a",@progbits
	.type	strESC, @object
	.size	strESC, 4
strESC:
	.string	"ESC"
	.section	.progmem.data.strNo,"a",@progbits
	.type	strNo, @object
	.size	strNo, 3
strNo:
	.string	"No"
	.section	.progmem.data.strYes,"a",@progbits
	.type	strYes, @object
	.size	strYes, 4
strYes:
	.string	"Yes"
	.section	.progmem.data.strAUX,"a",@progbits
	.type	strAUX, @object
	.size	strAUX, 4
strAUX:
	.string	"AUX"
	.section	.progmem.data.strStick,"a",@progbits
	.type	strStick, @object
	.size	strStick, 6
strStick:
	.string	"Stick"
	.section	.progmem.data.strYawRud,"a",@progbits
	.type	strYawRud, @object
	.size	strYawRud, 13
strYawRud:
	.string	"Yaw (Rudder)"
	.section	.progmem.data.strPitchEle,"a",@progbits
	.type	strPitchEle, @object
	.size	strPitchEle, 17
strPitchEle:
	.string	"Pitch (Elevator)"
	.section	.progmem.data.strRollAil,"a",@progbits
	.type	strRollAil, @object
	.size	strRollAil, 15
strRollAil:
	.string	"Roll (Aileron)"
	.section	.progmem.data.strFactoryReset,"a",@progbits
	.type	strFactoryReset, @object
	.size	strFactoryReset, 14
strFactoryReset:
	.string	"Factory Reset"
	.section	.progmem.data.strDebug,"a",@progbits
	.type	strDebug, @object
	.size	strDebug, 6
strDebug:
	.string	"Debug"
	.section	.progmem.data.strLoadMotorLayout,"a",@progbits
	.type	strLoadMotorLayout, @object
	.size	strLoadMotorLayout, 18
strLoadMotorLayout:
	.string	"Load Model Layout"
	.section	.progmem.data.strShowMotorLayout,"a",@progbits
	.type	strShowMotorLayout, @object
	.size	strShowMotorLayout, 18
strShowMotorLayout:
	.string	"Show Model Layout"
	.section	.progmem.data.strMixerEditor,"a",@progbits
	.type	strMixerEditor, @object
	.size	strMixerEditor, 13
strMixerEditor:
	.string	"Mixer Editor"
	.section	.progmem.data.strRadioCalibration,"a",@progbits
	.type	strRadioCalibration, @object
	.size	strRadioCalibration, 16
strRadioCalibration:
	.string	"Stick Centering"
	.section	.progmem.data.strESCCalibration,"a",@progbits
	.type	strESCCalibration, @object
	.size	strESCCalibration, 16
strESCCalibration:
	.string	"ESC Calibration"
	.section	.progmem.data.strCPPMSettings,"a",@progbits
	.type	strCPPMSettings, @object
	.size	strCPPMSettings, 14
strCPPMSettings:
	.string	"CPPM Settings"
	.section	.progmem.data.strSensorCalibration,"a",@progbits
	.type	strSensorCalibration, @object
	.size	strSensorCalibration, 19
strSensorCalibration:
	.string	"Sensor Calibration"
	.section	.progmem.data.strSensorTest,"a",@progbits
	.type	strSensorTest, @object
	.size	strSensorTest, 12
strSensorTest:
	.string	"Sensor Test"
	.section	.progmem.data.strCameraStabSerrings,"a",@progbits
	.type	strCameraStabSerrings, @object
	.size	strCameraStabSerrings, 21
strCameraStabSerrings:
	.string	"Camera Stab Settings"
	.section	.progmem.data.strSelflevelSettings,"a",@progbits
	.type	strSelflevelSettings, @object
	.size	strSelflevelSettings, 20
strSelflevelSettings:
	.string	"Self-level Settings"
	.section	.progmem.data.strMiscSettings,"a",@progbits
	.type	strMiscSettings, @object
	.size	strMiscSettings, 15
strMiscSettings:
	.string	"Misc. Settings"
	.section	.progmem.data.strStickScaling,"a",@progbits
	.type	strStickScaling, @object
	.size	strStickScaling, 14
strStickScaling:
	.string	"Stick Scaling"
	.section	.progmem.data.strModeSettings,"a",@progbits
	.type	strModeSettings, @object
	.size	strModeSettings, 14
strModeSettings:
	.string	"Mode Settings"
	.section	.progmem.data.strReceiverTest,"a",@progbits
	.type	strReceiverTest, @object
	.size	strReceiverTest, 14
strReceiverTest:
	.string	"Receiver Test"
	.section	.progmem.data.strPIEditor,"a",@progbits
	.type	strPIEditor, @object
	.size	strPIEditor, 10
strPIEditor:
	.string	"PI Editor"
	.section	.progmem.data.strON,"a",@progbits
	.type	strON, @object
	.size	strON, 3
strON:
	.string	"ON"
	.section	.progmem.data.strOFF,"a",@progbits
	.type	strOFF, @object
	.size	strOFF, 4
strOFF:
	.string	"OFF"
	.section	.progmem.data.strARMED,"a",@progbits
	.type	strARMED, @object
	.size	strARMED, 6
strARMED:
	.string	"ARMED"
	.section	.progmem.data.strSAFE,"a",@progbits
	.type	strSAFE, @object
	.size	strSAFE, 5
strSAFE:
	.string	"SAFE"
	.section	.bss.keys,"aw",@nobits
	.type	keys, @object
	.size	keys, 1
keys:
	.zero	1
	.text
.Letext0:
	.file 4 "c:\\program files (x86)\\atmel\\atmel toolchain\\avr8 gcc\\native\\3.4.1061\\avr8-gnu-toolchain\\avr\\include\\stdint.h"
	.file 5 "../include/mixer.h"
	.file 6 "../include/pid.h"
	.file 7 "../include/config.h"
	.file 8 "../include/global.h"
	.file 9 "c:\\program files (x86)\\atmel\\atmel toolchain\\avr8 gcc\\native\\3.4.1061\\avr8-gnu-toolchain\\lib\\gcc\\avr\\4.8.1\\include\\stddef.h"
	.file 10 "../include/fonts.h"
	.file 11 "../include/glyphs.h"
	.file 12 "../menu/menu_text.h"
	.file 13 "../menu/menu_screen.h"
	.file 14 "../include/sensors.h"
	.file 15 "../include/rx.h"
	.file 16 "../include/controller.h"
	.file 17 "../include/imu.h"
	.file 18 "../include/lcd.h"
	.file 19 "../include/system.h"
	.file 20 "../include/keyboard.h"