	.file	"mpu6050.c"
__SP_H__ = 0x3e
__SP_L__ = 0x3d
__SREG__ = 0x3f
__tmp_reg__ = 0
__zero_reg__ = 1
	.text
.Ltext0:
	.cfi_sections	.debug_frame
	.section	.text.mpu6050_readBytes.part.0,"ax",@progbits
	.type	mpu6050_readBytes.part.0, @function
mpu6050_readBytes.part.0:
.LFB25:
	.file 1 "../mpu6050/mpu6050.c"
	.loc 1 33 0
	.cfi_startproc
.LVL0:
	push r10
.LCFI0:
	.cfi_def_cfa_offset 3
	.cfi_offset 10, -2
	push r11
.LCFI1:
	.cfi_def_cfa_offset 4
	.cfi_offset 11, -3
	push r13
.LCFI2:
	.cfi_def_cfa_offset 5
	.cfi_offset 13, -4
	push r14
.LCFI3:
	.cfi_def_cfa_offset 6
	.cfi_offset 14, -5
	push r15
.LCFI4:
	.cfi_def_cfa_offset 7
	.cfi_offset 15, -6
	push r16
.LCFI5:
	.cfi_def_cfa_offset 8
	.cfi_offset 16, -7
	push r17
.LCFI6:
	.cfi_def_cfa_offset 9
	.cfi_offset 17, -8
	push r28
.LCFI7:
	.cfi_def_cfa_offset 10
	.cfi_offset 28, -9
	push r29
.LCFI8:
	.cfi_def_cfa_offset 11
	.cfi_offset 29, -10
	rcall .
.LCFI9:
	.cfi_def_cfa_offset 13
	in r28,__SP_L__
	in r29,__SP_H__
.LCFI10:
	.cfi_def_cfa_register 28
/* prologue: function */
/* frame size = 2 */
/* stack size = 11 */
.L__stack_usage = 11
	mov r17,r24
	mov r13,r22
	.loc 1 38 0
	ldi r24,lo8(-48)
.LVL1:
	std Y+1,r20
	std Y+2,r21
	call i2c_start
.LVL2:
	.loc 1 39 0
	mov r24,r17
	call i2c_write
.LVL3:
.LBB14:
.LBB15:
	.file 2 "c:\\program files (x86)\\atmel\\atmel toolchain\\avr8 gcc\\native\\3.4.1061\\avr8-gnu-toolchain\\avr\\include\\util\\delay.h"
	.loc 2 245 0
	ldi r24,lo8(66)
	1: dec r24
	brne 1b
	rjmp .
.LBE15:
.LBE14:
	.loc 1 42 0
	ldi r24,lo8(-47)
	call i2c_start
.LVL4:
	ldd r20,Y+1
	mov r10,r20
	ldd r21,Y+2
	mov r11,r21
	ldi r16,0
	ldi r17,0
	.loc 1 45 0
	mov r14,r13
	mov r15,__zero_reg__
	ldi r30,1
	sub r14,r30
	sbc r15,__zero_reg__
.LVL5:
.L2:
	.loc 1 43 0
	cp r16,r13
	brsh .L8
.LVL6:
	.loc 1 45 0
	cp r16,r14
	cpc r17,r15
	brne .L3
	.loc 1 46 0
	call i2c_readNak
.LVL7:
	rjmp .L6
.L3:
	.loc 1 48 0
	call i2c_readAck
.LVL8:
.L6:
	movw r30,r10
	st Z,r24
.LVL9:
	subi r16,-1
	sbci r17,-1
.LVL10:
	ldi r31,-1
	sub r10,r31
	sbc r11,r31
	rjmp .L2
.L8:
	.loc 1 50 0
	call i2c_stop
.LVL11:
	.loc 1 53 0
	mov r24,r13
/* epilogue start */
	pop __tmp_reg__
	pop __tmp_reg__
	pop r29
	pop r28
	pop r17
.LVL12:
	pop r16
.LVL13:
	pop r15
	pop r14
	pop r13
.LVL14:
	pop r11
	pop r10
	ret
	.cfi_endproc
.LFE25:
	.size	mpu6050_readBytes.part.0, .-mpu6050_readBytes.part.0
	.section	.text.mpu6050_readBytes,"ax",@progbits
.global	mpu6050_readBytes
	.type	mpu6050_readBytes, @function
mpu6050_readBytes:
.LFB11:
	.loc 1 33 0
	.cfi_startproc
.LVL15:
/* prologue: function */
/* frame size = 0 */
/* stack size = 0 */
.L__stack_usage = 0
	.loc 1 36 0
	cpse r22,__zero_reg__
	jmp mpu6050_readBytes.part.0
.LVL16:
.L10:
	.loc 1 53 0
	ldi r24,0
.LVL17:
	ret
	.cfi_endproc
.LFE11:
	.size	mpu6050_readBytes, .-mpu6050_readBytes
	.section	.text.mpu6050_readByte,"ax",@progbits
.global	mpu6050_readByte
	.type	mpu6050_readByte, @function
mpu6050_readByte:
.LFB12:
	.loc 1 58 0
	.cfi_startproc
.LVL18:
/* prologue: function */
/* frame size = 0 */
/* stack size = 0 */
.L__stack_usage = 0
	movw r20,r22
.LVL19:
.LBB22:
.LBB23:
	ldi r22,lo8(1)
.LVL20:
	jmp mpu6050_readBytes.part.0
.LVL21:
.LBE23:
.LBE22:
	.cfi_endproc
.LFE12:
	.size	mpu6050_readByte, .-mpu6050_readByte
	.section	.text.mpu6050_writeBytes,"ax",@progbits
.global	mpu6050_writeBytes
	.type	mpu6050_writeBytes, @function
mpu6050_writeBytes:
.LFB13:
	.loc 1 65 0
	.cfi_startproc
.LVL22:
	.loc 1 65 0
	push r14
.LCFI11:
	.cfi_def_cfa_offset 3
	.cfi_offset 14, -2
	push r15
.LCFI12:
	.cfi_def_cfa_offset 4
	.cfi_offset 15, -3
	push r16
.LCFI13:
	.cfi_def_cfa_offset 5
	.cfi_offset 16, -4
	push r17
.LCFI14:
	.cfi_def_cfa_offset 6
	.cfi_offset 17, -5
	push r28
.LCFI15:
	.cfi_def_cfa_offset 7
	.cfi_offset 28, -6
	push r29
.LCFI16:
	.cfi_def_cfa_offset 8
	.cfi_offset 29, -7
	rcall .
.LCFI17:
	.cfi_def_cfa_offset 10
	in r28,__SP_L__
	in r29,__SP_H__
.LCFI18:
	.cfi_def_cfa_register 28
/* prologue: function */
/* frame size = 2 */
/* stack size = 8 */
.L__stack_usage = 8
	mov r16,r24
	mov r17,r22
	.loc 1 66 0
	tst r22
	breq .L12
	.loc 1 68 0
	ldi r24,lo8(-48)
.LVL23:
	std Y+1,r20
	std Y+2,r21
	call i2c_start
.LVL24:
	.loc 1 69 0
	mov r24,r16
	call i2c_write
.LVL25:
	ldd r20,Y+1
	mov r16,r20
.LVL26:
.LBB24:
	.loc 1 70 0
	mov r14,r20
	ldd r21,Y+2
	mov r15,r21
.LVL27:
.L14:
	mov r24,r14
	sub r24,r16
	.loc 1 70 0 is_stmt 0 discriminator 1
	cp r24,r17
	brsh .L16
	.loc 1 71 0 is_stmt 1 discriminator 2
	movw r30,r14
	ld r24,Z+
	movw r14,r30
.LVL28:
	call i2c_write
.LVL29:
	rjmp .L14
.L16:
/* epilogue start */
.LBE24:
	.loc 1 75 0
	pop __tmp_reg__
	pop __tmp_reg__
	pop r29
	pop r28
	pop r17
.LVL30:
	pop r16
	pop r15
	pop r14
.LVL31:
	.loc 1 73 0
	jmp i2c_stop
.LVL32:
.L12:
/* epilogue start */
	.loc 1 75 0
	pop __tmp_reg__
	pop __tmp_reg__
	pop r29
	pop r28
	pop r17
.LVL33:
	pop r16
.LVL34:
	pop r15
	pop r14
	ret
	.cfi_endproc
.LFE13:
	.size	mpu6050_writeBytes, .-mpu6050_writeBytes
	.section	.text.mpu6050_writeByte,"ax",@progbits
.global	mpu6050_writeByte
	.type	mpu6050_writeByte, @function
mpu6050_writeByte:
.LFB14:
	.loc 1 80 0
	.cfi_startproc
.LVL35:
	push r28
.LCFI19:
	.cfi_def_cfa_offset 3
	.cfi_offset 28, -2
	push r29
.LCFI20:
	.cfi_def_cfa_offset 4
	.cfi_offset 29, -3
	push __zero_reg__
.LCFI21:
	.cfi_def_cfa_offset 5
	in r28,__SP_L__
	in r29,__SP_H__
.LCFI22:
	.cfi_def_cfa_register 28
/* prologue: function */
/* frame size = 1 */
/* stack size = 3 */
.L__stack_usage = 3
	std Y+1,r22
	.loc 1 81 0
	movw r20,r28
	subi r20,-1
	sbci r21,-1
	ldi r22,lo8(1)
.LVL36:
	call mpu6050_writeBytes
.LVL37:
/* epilogue start */
	.loc 1 82 0
	pop __tmp_reg__
	pop r29
	pop r28
.LVL38:
	ret
	.cfi_endproc
.LFE14:
	.size	mpu6050_writeByte, .-mpu6050_writeByte
	.section	.text.mpu6050_writeBits.part.1,"ax",@progbits
	.type	mpu6050_writeBits.part.1, @function
mpu6050_writeBits.part.1:
.LFB26:
	.loc 1 119 0
	.cfi_startproc
.LVL39:
	push r16
.LCFI23:
	.cfi_def_cfa_offset 3
	.cfi_offset 16, -2
	push r17
.LCFI24:
	.cfi_def_cfa_offset 4
	.cfi_offset 17, -3
	push r28
.LCFI25:
	.cfi_def_cfa_offset 5
	.cfi_offset 28, -4
	push r29
.LCFI26:
	.cfi_def_cfa_offset 6
	.cfi_offset 29, -5
	rcall .
	push __zero_reg__
.LCFI27:
	.cfi_def_cfa_offset 9
	in r28,__SP_L__
	in r29,__SP_H__
.LCFI28:
	.cfi_def_cfa_register 28
/* prologue: function */
/* frame size = 3 */
/* stack size = 7 */
.L__stack_usage = 7
	mov r17,r24
	mov r16,r22
.LBB25:
	.loc 1 128 0
	std Y+1,__zero_reg__
	.loc 1 129 0
	movw r22,r28
.LVL40:
	subi r22,-1
	sbci r23,-1
	std Y+3,r18
	std Y+2,r20
	call mpu6050_readByte
.LVL41:
	ldd r18,Y+3
	ldd r20,Y+2
	tst r24
	breq .L18
.LBB26:
	.loc 1 130 0
	mov r22,r16
	ldi r23,0
	sub r22,r20
	sbc r23,__zero_reg__
	subi r22,-1
	sbci r23,-1
	ldi r30,lo8(1)
	ldi r31,0
	rjmp 2f
	1:
	lsl r30
	rol r31
	2:
	dec r20
	brpl 1b
	sbiw r30,1
	mov r0,r22
	rjmp 2f
	1:
	lsl r30
	2:
	dec r0
	brpl 1b
.LVL42:
	.loc 1 131 0
	rjmp 2f
	1:
	lsl r18
	2:
	dec r22
	brpl 1b
.LVL43:
	.loc 1 133 0
	mov r22,r30
	com r22
	ldd r24,Y+1
	and r22,r24
	.loc 1 132 0
	and r30,r18
.LVL44:
	.loc 1 134 0
	or r22,r30
	std Y+1,r22
	.loc 1 135 0
	mov r24,r17
	call mpu6050_writeByte
.LVL45:
.L18:
/* epilogue start */
.LBE26:
.LBE25:
	.loc 1 138 0
	pop __tmp_reg__
	pop __tmp_reg__
	pop __tmp_reg__
	pop r29
	pop r28
	pop r17
.LVL46:
	pop r16
.LVL47:
	ret
	.cfi_endproc
.LFE26:
	.size	mpu6050_writeBits.part.1, .-mpu6050_writeBits.part.1
	.section	.text.mpu6050_readBits,"ax",@progbits
.global	mpu6050_readBits
	.type	mpu6050_readBits, @function
mpu6050_readBits:
.LFB15:
	.loc 1 87 0
	.cfi_startproc
.LVL48:
	push r15
.LCFI29:
	.cfi_def_cfa_offset 3
	.cfi_offset 15, -2
	push r16
.LCFI30:
	.cfi_def_cfa_offset 4
	.cfi_offset 16, -3
	push r17
.LCFI31:
	.cfi_def_cfa_offset 5
	.cfi_offset 17, -4
	push r28
.LCFI32:
	.cfi_def_cfa_offset 6
	.cfi_offset 28, -5
	push r29
.LCFI33:
	.cfi_def_cfa_offset 7
	.cfi_offset 29, -6
	rcall .
.LCFI34:
	.cfi_def_cfa_offset 9
	in r28,__SP_L__
	in r29,__SP_H__
.LCFI35:
	.cfi_def_cfa_register 28
/* prologue: function */
/* frame size = 2 */
/* stack size = 7 */
.L__stack_usage = 7
	mov r15,r22
	movw r16,r18
.LVL49:
	.loc 1 94 0
	tst r20
	breq .L26
.LBB27:
	.loc 1 96 0
	movw r22,r28
.LVL50:
	subi r22,-1
	sbci r23,-1
	std Y+2,r20
	call mpu6050_readByte
.LVL51:
	ldd r20,Y+2
	tst r24
	breq .L24
.LBB28:
	.loc 1 97 0
	mov r22,r15
	ldi r23,0
	sub r22,r20
	sbc r23,__zero_reg__
	subi r22,-1
	sbci r23,-1
	ldi r30,lo8(1)
	ldi r31,0
	rjmp 2f
	1:
	lsl r30
	rol r31
	2:
	dec r20
	brpl 1b
	sbiw r30,1
	mov r0,r22
	rjmp 2f
	1:
	lsl r30
	2:
	dec r0
	brpl 1b
	.loc 1 98 0
	ldd r20,Y+1
	and r20,r30
	.loc 1 99 0
	ldi r21,0
	rjmp 2f
	1:
	asr r21
	ror r20
	2:
	dec r22
	brpl 1b
	movw r30,r16
	st Z,r20
	rjmp .L24
.LVL52:
.L26:
.LBE28:
.LBE27:
	.loc 1 93 0
	ldi r24,0
.LVL53:
.L24:
/* epilogue start */
	.loc 1 104 0
	pop __tmp_reg__
	pop __tmp_reg__
	pop r29
	pop r28
	pop r17
	pop r16
.LVL54:
	pop r15
.LVL55:
	ret
	.cfi_endproc
.LFE15:
	.size	mpu6050_readBits, .-mpu6050_readBits
	.section	.text.mpu6050_readBit,"ax",@progbits
.global	mpu6050_readBit
	.type	mpu6050_readBit, @function
mpu6050_readBit:
.LFB16:
	.loc 1 109 0
	.cfi_startproc
.LVL56:
	push r15
.LCFI36:
	.cfi_def_cfa_offset 3
	.cfi_offset 15, -2
	push r16
.LCFI37:
	.cfi_def_cfa_offset 4
	.cfi_offset 16, -3
	push r17
.LCFI38:
	.cfi_def_cfa_offset 5
	.cfi_offset 17, -4
	push r28
.LCFI39:
	.cfi_def_cfa_offset 6
	.cfi_offset 28, -5
	push r29
.LCFI40:
	.cfi_def_cfa_offset 7
	.cfi_offset 29, -6
	push __zero_reg__
.LCFI41:
	.cfi_def_cfa_offset 8
	in r28,__SP_L__
	in r29,__SP_H__
.LCFI42:
	.cfi_def_cfa_register 28
/* prologue: function */
/* frame size = 1 */
/* stack size = 6 */
.L__stack_usage = 6
	mov r15,r22
	movw r16,r20
	.loc 1 111 0
	movw r22,r28
.LVL57:
	subi r22,-1
	sbci r23,-1
	call mpu6050_readByte
.LVL58:
	.loc 1 112 0
	ldi r18,lo8(1)
	ldi r19,0
	rjmp 2f
	1:
	lsl r18
	2:
	dec r15
	brpl 1b
	ldd r25,Y+1
	and r25,r18
	movw r30,r16
	st Z,r25
/* epilogue start */
	.loc 1 114 0
	pop __tmp_reg__
	pop r29
	pop r28
	pop r17
	pop r16
.LVL59:
	pop r15
.LVL60:
	ret
	.cfi_endproc
.LFE16:
	.size	mpu6050_readBit, .-mpu6050_readBit
	.section	.text.mpu6050_writeBits,"ax",@progbits
.global	mpu6050_writeBits
	.type	mpu6050_writeBits, @function
mpu6050_writeBits:
.LFB17:
	.loc 1 119 0
	.cfi_startproc
.LVL61:
/* prologue: function */
/* frame size = 0 */
/* stack size = 0 */
.L__stack_usage = 0
	.loc 1 127 0
	cpse r20,__zero_reg__
	jmp mpu6050_writeBits.part.1
.LVL62:
.L31:
	ret
	.cfi_endproc
.LFE17:
	.size	mpu6050_writeBits, .-mpu6050_writeBits
	.section	.text.mpu6050_writeBit,"ax",@progbits
.global	mpu6050_writeBit
	.type	mpu6050_writeBit, @function
mpu6050_writeBit:
.LFB18:
	.loc 1 143 0
	.cfi_startproc
.LVL63:
	push r16
.LCFI43:
	.cfi_def_cfa_offset 3
	.cfi_offset 16, -2
	push r17
.LCFI44:
	.cfi_def_cfa_offset 4
	.cfi_offset 17, -3
	push r28
.LCFI45:
	.cfi_def_cfa_offset 5
	.cfi_offset 28, -4
	push r29
.LCFI46:
	.cfi_def_cfa_offset 6
	.cfi_offset 29, -5
	rcall .
.LCFI47:
	.cfi_def_cfa_offset 8
	in r28,__SP_L__
	in r29,__SP_H__
.LCFI48:
	.cfi_def_cfa_register 28
/* prologue: function */
/* frame size = 2 */
/* stack size = 6 */
.L__stack_usage = 6
	mov r17,r24
	mov r16,r22
	.loc 1 145 0
	movw r22,r28
.LVL64:
	subi r22,-1
	sbci r23,-1
	std Y+2,r20
	call mpu6050_readByte
.LVL65:
	ldd r24,Y+1
	.loc 1 146 0
	ldd r20,Y+2
	ldi r18,lo8(1)
	ldi r19,0
	mov r0,r16
	rjmp 2f
	1:
	lsl r18
	2:
	dec r0
	brpl 1b
	tst r20
	breq .L34
	.loc 1 146 0 is_stmt 0 discriminator 1
	mov r22,r24
	or r22,r18
	rjmp .L35
.L34:
	.loc 1 146 0 discriminator 2
	mov r22,r18
	com r22
	and r22,r24
.L35:
	.loc 1 146 0 discriminator 3
	std Y+1,r22
	.loc 1 147 0 is_stmt 1 discriminator 3
	mov r24,r17
	call mpu6050_writeByte
.LVL66:
/* epilogue start */
	.loc 1 148 0 discriminator 3
	pop __tmp_reg__
	pop __tmp_reg__
	pop r29
	pop r28
	pop r17
.LVL67:
	pop r16
.LVL68:
	ret
	.cfi_endproc
.LFE18:
	.size	mpu6050_writeBit, .-mpu6050_writeBit
	.section	.text.mpu6050_setSleepDisabled,"ax",@progbits
.global	mpu6050_setSleepDisabled
	.type	mpu6050_setSleepDisabled, @function
mpu6050_setSleepDisabled:
.LFB19:
	.loc 1 433 0
	.cfi_startproc
/* prologue: function */
/* frame size = 0 */
/* stack size = 0 */
.L__stack_usage = 0
	.loc 1 434 0
	ldi r20,0
	ldi r22,lo8(6)
	ldi r24,lo8(107)
	jmp mpu6050_writeBit
.LVL69:
	.cfi_endproc
.LFE19:
	.size	mpu6050_setSleepDisabled, .-mpu6050_setSleepDisabled
	.section	.text.mpu6050_setSleepEnabled,"ax",@progbits
.global	mpu6050_setSleepEnabled
	.type	mpu6050_setSleepEnabled, @function
mpu6050_setSleepEnabled:
.LFB20:
	.loc 1 440 0
	.cfi_startproc
/* prologue: function */
/* frame size = 0 */
/* stack size = 0 */
.L__stack_usage = 0
	.loc 1 441 0
	ldi r20,lo8(1)
	ldi r22,lo8(6)
	ldi r24,lo8(107)
	jmp mpu6050_writeBit
.LVL70:
	.cfi_endproc
.LFE20:
	.size	mpu6050_setSleepEnabled, .-mpu6050_setSleepEnabled
	.section	.text.mpu6050_testConnection,"ax",@progbits
.global	mpu6050_testConnection
	.type	mpu6050_testConnection, @function
mpu6050_testConnection:
.LFB21:
	.loc 1 448 0
	.cfi_startproc
/* prologue: function */
/* frame size = 0 */
/* stack size = 0 */
.L__stack_usage = 0
	.loc 1 449 0
	ldi r18,lo8(buffer)
	ldi r19,hi8(buffer)
	ldi r20,lo8(6)
	ldi r22,lo8(6)
	ldi r24,lo8(117)
	call mpu6050_readBits
.LVL71:
	.loc 1 450 0
	lds r25,buffer
	ldi r24,lo8(1)
	cpi r25,lo8(52)
	breq .L39
	ldi r24,0
.L39:
	.loc 1 454 0
	ret
	.cfi_endproc
.LFE21:
	.size	mpu6050_testConnection, .-mpu6050_testConnection
	.section	.text.mpu6050_init,"ax",@progbits
.global	mpu6050_init
	.type	mpu6050_init, @function
mpu6050_init:
.LFB22:
	.loc 1 459 0
	.cfi_startproc
/* prologue: function */
/* frame size = 0 */
/* stack size = 0 */
.L__stack_usage = 0
	.loc 1 462 0
	call i2c_init
.LVL72:
.LBB43:
.LBB44:
	.loc 2 245 0
	ldi r18,lo8(66)
	1: dec r18
	brne 1b
	rjmp .
.LVL73:
.LBE44:
.LBE43:
.LBB45:
.LBB46:
	.loc 2 163 0
	ldi r24,lo8(399999)
	ldi r25,hi8(399999)
	ldi r18,hlo8(399999)
	1: subi r24,1
	sbci r25,0
	sbci r18,0
	brne 1b
	rjmp .
	nop
.LBE46:
.LBE45:
	.loc 1 470 0
	call mpu6050_setSleepDisabled
.LVL74:
.LBB47:
.LBB48:
	.loc 2 163 0
	ldi r24,lo8(-15537)
	ldi r25,hi8(-15537)
	1: sbiw r24,1
	brne 1b
	rjmp .
	nop
.LVL75:
.LBE48:
.LBE47:
.LBB49:
.LBB50:
	ldi r18,lo8(1)
	ldi r20,lo8(3)
	ldi r22,lo8(2)
	ldi r24,lo8(107)
	call mpu6050_writeBits.part.1
.LVL76:
.LBE50:
.LBE49:
.LBB51:
.LBB52:
	ldi r18,lo8(3)
	ldi r20,lo8(3)
	ldi r22,lo8(2)
	ldi r24,lo8(26)
	call mpu6050_writeBits.part.1
.LVL77:
.LBE52:
.LBE51:
	.loc 1 481 0
	ldi r22,lo8(4)
	ldi r24,lo8(25)
	call mpu6050_writeByte
.LVL78:
.LBB53:
.LBB54:
	ldi r18,lo8(3)
	ldi r20,lo8(2)
	ldi r22,lo8(4)
	ldi r24,lo8(27)
	call mpu6050_writeBits.part.1
.LVL79:
.LBE54:
.LBE53:
.LBB55:
.LBB56:
	ldi r18,0
	ldi r20,lo8(2)
	ldi r22,lo8(4)
	ldi r24,lo8(28)
	jmp mpu6050_writeBits.part.1
.LVL80:
.LBE56:
.LBE55:
	.cfi_endproc
.LFE22:
	.size	mpu6050_init, .-mpu6050_init
	.section	.text.mpu6050_getRawData,"ax",@progbits
.global	mpu6050_getRawData
	.type	mpu6050_getRawData, @function
mpu6050_getRawData:
.LFB23:
	.loc 1 496 0
	.cfi_startproc
.LVL81:
	push r8
.LCFI49:
	.cfi_def_cfa_offset 3
	.cfi_offset 8, -2
	push r9
.LCFI50:
	.cfi_def_cfa_offset 4
	.cfi_offset 9, -3
	push r10
.LCFI51:
	.cfi_def_cfa_offset 5
	.cfi_offset 10, -4
	push r11
.LCFI52:
	.cfi_def_cfa_offset 6
	.cfi_offset 11, -5
	push r12
.LCFI53:
	.cfi_def_cfa_offset 7
	.cfi_offset 12, -6
	push r13
.LCFI54:
	.cfi_def_cfa_offset 8
	.cfi_offset 13, -7
	push r14
.LCFI55:
	.cfi_def_cfa_offset 9
	.cfi_offset 14, -8
	push r15
.LCFI56:
	.cfi_def_cfa_offset 10
	.cfi_offset 15, -9
	push r16
.LCFI57:
	.cfi_def_cfa_offset 11
	.cfi_offset 16, -10
	push r17
.LCFI58:
	.cfi_def_cfa_offset 12
	.cfi_offset 17, -11
	push r28
.LCFI59:
	.cfi_def_cfa_offset 13
	.cfi_offset 28, -12
	push r29
.LCFI60:
	.cfi_def_cfa_offset 14
	.cfi_offset 29, -13
/* prologue: function */
/* frame size = 0 */
/* stack size = 12 */
.L__stack_usage = 12
	movw r28,r24
	movw r10,r22
	movw r12,r20
	movw r8,r18
	.loc 1 497 0
	ldi r20,lo8(buffer)
	ldi r21,hi8(buffer)
.LVL82:
	ldi r22,lo8(14)
.LVL83:
	ldi r24,lo8(59)
.LVL84:
	call mpu6050_readBytes
.LVL85:
	.loc 1 499 0
	lds r18,buffer
	lds r24,buffer+1
	ldi r25,0
	or r25,r18
	std Y+1,r25
	st Y,r24
	.loc 1 500 0
	lds r18,buffer+2
	lds r24,buffer+3
	ldi r25,0
	or r25,r18
	movw r30,r10
	std Z+1,r25
	st Z,r24
	.loc 1 501 0
	lds r18,buffer+4
	lds r24,buffer+5
	ldi r25,0
	or r25,r18
	movw r30,r12
	std Z+1,r25
	st Z,r24
	.loc 1 502 0
	lds r18,buffer+8
	lds r24,buffer+9
	ldi r25,0
	or r25,r18
	movw r30,r8
	std Z+1,r25
	st Z,r24
	.loc 1 503 0
	lds r18,buffer+10
	lds r24,buffer+11
	ldi r25,0
	or r25,r18
	movw r30,r16
	std Z+1,r25
	st Z,r24
	.loc 1 504 0
	lds r18,buffer+12
	lds r24,buffer+13
	ldi r25,0
	or r25,r18
	movw r30,r14
	std Z+1,r25
	st Z,r24
/* epilogue start */
	.loc 1 505 0
	pop r29
	pop r28
.LVL86:
	pop r17
	pop r16
.LVL87:
	pop r15
	pop r14
.LVL88:
	pop r13
	pop r12
.LVL89:
	pop r11
	pop r10
.LVL90:
	pop r9
	pop r8
.LVL91:
	ret
	.cfi_endproc
.LFE23:
	.size	mpu6050_getRawData, .-mpu6050_getRawData
.global	__floatsisf
.global	__mulsf3
	.section	.text.mpu6050_getConvData,"ax",@progbits
.global	mpu6050_getConvData
	.type	mpu6050_getConvData, @function
mpu6050_getConvData:
.LFB24:
	.loc 1 510 0
	.cfi_startproc
.LVL92:
	push r2
.LCFI61:
	.cfi_def_cfa_offset 3
	.cfi_offset 2, -2
	push r3
.LCFI62:
	.cfi_def_cfa_offset 4
	.cfi_offset 3, -3
	push r4
.LCFI63:
	.cfi_def_cfa_offset 5
	.cfi_offset 4, -4
	push r5
.LCFI64:
	.cfi_def_cfa_offset 6
	.cfi_offset 5, -5
	push r6
.LCFI65:
	.cfi_def_cfa_offset 7
	.cfi_offset 6, -6
	push r7
.LCFI66:
	.cfi_def_cfa_offset 8
	.cfi_offset 7, -7
	push r8
.LCFI67:
	.cfi_def_cfa_offset 9
	.cfi_offset 8, -8
	push r9
.LCFI68:
	.cfi_def_cfa_offset 10
	.cfi_offset 9, -9
	push r10
.LCFI69:
	.cfi_def_cfa_offset 11
	.cfi_offset 10, -10
	push r11
.LCFI70:
	.cfi_def_cfa_offset 12
	.cfi_offset 11, -11
	push r12
.LCFI71:
	.cfi_def_cfa_offset 13
	.cfi_offset 12, -12
	push r13
.LCFI72:
	.cfi_def_cfa_offset 14
	.cfi_offset 13, -13
	push r14
.LCFI73:
	.cfi_def_cfa_offset 15
	.cfi_offset 14, -14
	push r15
.LCFI74:
	.cfi_def_cfa_offset 16
	.cfi_offset 15, -15
	push r16
.LCFI75:
	.cfi_def_cfa_offset 17
	.cfi_offset 16, -16
	push r17
.LCFI76:
	.cfi_def_cfa_offset 18
	.cfi_offset 17, -17
	push r28
.LCFI77:
	.cfi_def_cfa_offset 19
	.cfi_offset 28, -18
	push r29
.LCFI78:
	.cfi_def_cfa_offset 20
	.cfi_offset 29, -19
	in r28,__SP_L__
	in r29,__SP_H__
.LCFI79:
	.cfi_def_cfa_register 28
	sbiw r28,12
.LCFI80:
	.cfi_def_cfa_offset 32
	in __tmp_reg__,__SREG__
	cli
	out __SP_H__,r29
	out __SREG__,__tmp_reg__
	out __SP_L__,r28
/* prologue: function */
/* frame size = 12 */
/* stack size = 30 */
.L__stack_usage = 30
	movw r6,r24
	movw r8,r22
	movw r10,r20
	movw r12,r18
	movw r4,r16
	movw r2,r14
	.loc 1 511 0
	std Y+12,__zero_reg__
	std Y+11,__zero_reg__
	.loc 1 512 0
	std Y+10,__zero_reg__
	std Y+9,__zero_reg__
	.loc 1 513 0
	std Y+8,__zero_reg__
	std Y+7,__zero_reg__
	.loc 1 514 0
	std Y+6,__zero_reg__
	std Y+5,__zero_reg__
	.loc 1 515 0
	std Y+4,__zero_reg__
	std Y+3,__zero_reg__
	.loc 1 516 0
	std Y+2,__zero_reg__
	std Y+1,__zero_reg__
	.loc 1 517 0
	movw r24,r28
.LVL93:
	adiw r24,1
	movw r14,r24
.LVL94:
	movw r16,r28
.LVL95:
	subi r16,-3
	sbci r17,-1
	movw r18,r28
.LVL96:
	subi r18,-5
	sbci r19,-1
	movw r20,r28
.LVL97:
	subi r20,-7
	sbci r21,-1
	movw r22,r28
.LVL98:
	subi r22,-9
	sbci r23,-1
	adiw r24,10
	call mpu6050_getRawData
.LVL99:
	.loc 1 520 0
	ldd r22,Y+11
	ldd r23,Y+12
	clr r24
	sbrc r23,7
	com r24
	mov r25,r24
	call __floatsisf
.LVL100:
	ldi r18,0
	ldi r19,0
	ldi r20,lo8(-128)
	ldi r21,lo8(56)
	call __mulsf3
.LVL101:
	movw r30,r6
	st Z,r22
	std Z+1,r23
	std Z+2,r24
	std Z+3,r25
	.loc 1 521 0
	ldd r22,Y+9
	ldd r23,Y+10
	clr r24
	sbrc r23,7
	com r24
	mov r25,r24
	call __floatsisf
.LVL102:
	ldi r18,0
	ldi r19,0
	ldi r20,lo8(-128)
	ldi r21,lo8(56)
	call __mulsf3
.LVL103:
	movw r30,r8
	st Z,r22
	std Z+1,r23
	std Z+2,r24
	std Z+3,r25
	.loc 1 522 0
	ldd r22,Y+7
	ldd r23,Y+8
	clr r24
	sbrc r23,7
	com r24
	mov r25,r24
	call __floatsisf
.LVL104:
	ldi r18,0
	ldi r19,0
	ldi r20,lo8(-128)
	ldi r21,lo8(56)
	call __mulsf3
.LVL105:
	movw r30,r10
	st Z,r22
	std Z+1,r23
	std Z+2,r24
	std Z+3,r25
	.loc 1 523 0
	ldd r22,Y+5
	ldd r23,Y+6
	subi r22,-42
	sbci r23,-1
	clr r24
	sbrc r23,7
	com r24
	mov r25,r24
	call __floatsisf
.LVL106:
	ldi r18,lo8(-112)
	ldi r19,lo8(-63)
	ldi r20,lo8(121)
	ldi r21,lo8(61)
	call __mulsf3
.LVL107:
	movw r30,r12
	st Z,r22
	std Z+1,r23
	std Z+2,r24
	std Z+3,r25
	.loc 1 524 0
	ldd r22,Y+3
	ldd r23,Y+4
	subi r22,9
	sbc r23,__zero_reg__
	clr r24
	sbrc r23,7
	com r24
	mov r25,r24
	call __floatsisf
.LVL108:
	ldi r18,lo8(-112)
	ldi r19,lo8(-63)
	ldi r20,lo8(121)
	ldi r21,lo8(61)
	call __mulsf3
.LVL109:
	movw r30,r4
	st Z,r22
	std Z+1,r23
	std Z+2,r24
	std Z+3,r25
	.loc 1 525 0
	ldd r22,Y+1
	ldd r23,Y+2
	subi r22,-29
	sbci r23,-1
	clr r24
	sbrc r23,7
	com r24
	mov r25,r24
	call __floatsisf
.LVL110:
	ldi r18,lo8(-112)
	ldi r19,lo8(-63)
	ldi r20,lo8(121)
	ldi r21,lo8(61)
	call __mulsf3
.LVL111:
	movw r30,r2
	st Z,r22
	std Z+1,r23
	std Z+2,r24
	std Z+3,r25
/* epilogue start */
	.loc 1 534 0
	adiw r28,12
	in __tmp_reg__,__SREG__
	cli
	out __SP_H__,r29
	out __SREG__,__tmp_reg__
	out __SP_L__,r28
	pop r29
	pop r28
	pop r17
	pop r16
	pop r15
	pop r14
	pop r13
	pop r12
.LVL112:
	pop r11
	pop r10
.LVL113:
	pop r9
	pop r8
.LVL114:
	pop r7
	pop r6
.LVL115:
	pop r5
	pop r4
.LVL116:
	pop r3
	pop r2
.LVL117:
	ret
	.cfi_endproc
.LFE24:
	.size	mpu6050_getConvData, .-mpu6050_getConvData
	.comm	buffer,14,1
	.text
.Letext0:
	.file 3 "c:\\program files (x86)\\atmel\\atmel toolchain\\avr8 gcc\\native\\3.4.1061\\avr8-gnu-toolchain\\avr\\include\\stdint.h"
	.file 4 "../mpu6050/../i2chw/i2cmaster.h"