	.file	"pwm.c"
__SP_H__ = 0x3e
__SP_L__ = 0x3d
__SREG__ = 0x3f
__tmp_reg__ = 0
__zero_reg__ = 1
	.text
.Ltext0:
	.cfi_sections	.debug_frame
	.section	.text.doOutput,"ax",@progbits
	.type	doOutput, @function
doOutput:
.LFB9:
	.file 1 "../driver/pwm.c"
	.loc 1 32 0
	.cfi_startproc
.LVL0:
	push r28
.LCFI0:
	.cfi_def_cfa_offset 3
	.cfi_offset 28, -2
	push r29
.LCFI1:
	.cfi_def_cfa_offset 4
	.cfi_offset 29, -3
/* prologue: function */
/* frame size = 0 */
/* stack size = 2 */
.L__stack_usage = 2
	.loc 1 33 0
	mov r30,r24
	ldi r31,0
	movw r18,r30
	lsl r18
	rol r19
.LVL1:
	movw r26,r18
	subi r26,lo8(-(PWM))
	sbci r27,hi8(-(PWM))
	ld r24,X+
	ld r25,X
	or r24,r25
	breq .L2
	.loc 1 33 0 is_stmt 0 discriminator 1
	ldi r24,lo8(6)
	mul r24,r30
	movw r26,r0
	mul r24,r31
	add r27,r0
	clr __zero_reg__
	movw r28,r26
	subi r28,lo8(-(Config+77))
	sbci r29,hi8(-(Config+77))
	ld r24,Y
	tst r24
	breq .L2
	sbrc r24,0
	rjmp .L3
	cpse r22,__zero_reg__
	rjmp .L3
	sbrs r24,2
	rjmp .L2
.L3:
	.loc 1 35 0 is_stmt 1
/* #APP */
 ;  35 "../driver/pwm.c" 1
	cli
 ;  0 "" 2
	.loc 1 36 0
/* #NOAPP */
	in r24,0x8
.LVL2:
.LBB12:
	subi r30,lo8(-(masktable))
	sbci r31,hi8(-(masktable))
.LVL3:
/* #APP */
 ;  36 "../driver/pwm.c" 1
	lpm r30, Z
	
 ;  0 "" 2
.LVL4:
/* #NOAPP */
.LBE12:
	or r30,r24
.LVL5:
	out 0x8,r30
	.loc 1 37 0
	lds r24,132
	lds r25,132+1
	movw r30,r18
	subi r30,lo8(-(PWM))
	sbci r31,hi8(-(PWM))
	ld r18,Z
	ldd r19,Z+1
	add r24,r18
	adc r25,r19
	rjmp .L4
.LVL6:
.L2:
	.loc 1 40 0
	lds r24,132
	lds r25,132+1
	subi r24,48
	sbci r25,-8
.LVL7:
.L4:
/* epilogue start */
	.loc 1 41 0
	pop r29
	pop r28
	ret
	.cfi_endproc
.LFE9:
	.size	doOutput, .-doOutput
	.section	.lowtext,"ax",@progbits
.global	__vector_13
	.type	__vector_13, @function
__vector_13:
.LFB10:
	.loc 1 46 0
	.cfi_startproc
	push r1
.LCFI2:
	.cfi_def_cfa_offset 3
	.cfi_offset 1, -2
	push r0
.LCFI3:
	.cfi_def_cfa_offset 4
	.cfi_offset 0, -3
	in r0,__SREG__
	push r0
	clr __zero_reg__
	push r18
.LCFI4:
	.cfi_def_cfa_offset 5
	.cfi_offset 18, -4
	push r19
.LCFI5:
	.cfi_def_cfa_offset 6
	.cfi_offset 19, -5
	push r20
.LCFI6:
	.cfi_def_cfa_offset 7
	.cfi_offset 20, -6
	push r21
.LCFI7:
	.cfi_def_cfa_offset 8
	.cfi_offset 21, -7
	push r22
.LCFI8:
	.cfi_def_cfa_offset 9
	.cfi_offset 22, -8
	push r23
.LCFI9:
	.cfi_def_cfa_offset 10
	.cfi_offset 23, -9
	push r24
.LCFI10:
	.cfi_def_cfa_offset 11
	.cfi_offset 24, -10
	push r25
.LCFI11:
	.cfi_def_cfa_offset 12
	.cfi_offset 25, -11
	push r26
.LCFI12:
	.cfi_def_cfa_offset 13
	.cfi_offset 26, -12
	push r27
.LCFI13:
	.cfi_def_cfa_offset 14
	.cfi_offset 27, -13
	push r30
.LCFI14:
	.cfi_def_cfa_offset 15
	.cfi_offset 30, -14
	push r31
.LCFI15:
	.cfi_def_cfa_offset 16
	.cfi_offset 31, -15
/* prologue: Signal */
/* frame size = 0 */
/* stack size = 15 */
.L__stack_usage = 15
	.loc 1 51 0
	in r24,0x8
	andi r24,lo8(-103)
	out 0x8,r24
	.loc 1 52 0
/* #APP */
 ;  52 "../driver/pwm.c" 1
	sei
 ;  0 "" 2
	.loc 1 54 0
/* #NOAPP */
	lds r24,index.1790
	cpse r24,__zero_reg__
	rjmp .L16
.LVL8:
.LBB15:
.LBB16:
	.loc 1 21 0
	call millis
.LVL9:
	.loc 1 22 0
	lds r18,lastLoStart.1792
	lds r19,lastLoStart.1792+1
	movw r20,r24
	sub r20,r18
	sbc r21,r19
	cpi r20,20
	cpc r21,__zero_reg__
	brlo .L18
	.loc 1 24 0
	sts lastLoStart.1792+1,r25
	sts lastLoStart.1792,r24
	.loc 1 25 0
	ldi r24,lo8(1)
.LVL10:
	rjmp .L17
.LVL11:
.L18:
	.loc 1 28 0
	ldi r24,0
.LVL12:
.L17:
.LBE16:
.LBE15:
	.loc 1 55 0
	sts loActive.1791,r24
.LVL13:
.L16:
	.loc 1 57 0
	lds r24,index.1790
	lds r22,loActive.1791
	lsl r24
	call doOutput
.LVL14:
	sts 136+1,r25
	sts 136,r24
	.loc 1 58 0
/* #APP */
 ;  58 "../driver/pwm.c" 1
	sei
 ;  0 "" 2
	.loc 1 59 0
/* #NOAPP */
	lds r24,index.1790
	ldi r25,0
	adiw r24,1
	andi r24,3
	clr r25
	sts index.1790,r24
/* epilogue start */
	.loc 1 60 0
	pop r31
	pop r30
	pop r27
	pop r26
	pop r25
	pop r24
	pop r23
	pop r22
	pop r21
	pop r20
	pop r19
	pop r18
	pop r0
	out __SREG__,r0
	pop r0
	pop r1
	reti
	.cfi_endproc
.LFE10:
	.size	__vector_13, .-__vector_13
.global	__vector_14
	.type	__vector_14, @function
__vector_14:
.LFB11:
	.loc 1 65 0
	.cfi_startproc
	push r1
.LCFI16:
	.cfi_def_cfa_offset 3
	.cfi_offset 1, -2
	push r0
.LCFI17:
	.cfi_def_cfa_offset 4
	.cfi_offset 0, -3
	in r0,__SREG__
	push r0
	clr __zero_reg__
	push r18
.LCFI18:
	.cfi_def_cfa_offset 5
	.cfi_offset 18, -4
	push r19
.LCFI19:
	.cfi_def_cfa_offset 6
	.cfi_offset 19, -5
	push r20
.LCFI20:
	.cfi_def_cfa_offset 7
	.cfi_offset 20, -6
	push r21
.LCFI21:
	.cfi_def_cfa_offset 8
	.cfi_offset 21, -7
	push r22
.LCFI22:
	.cfi_def_cfa_offset 9
	.cfi_offset 22, -8
	push r23
.LCFI23:
	.cfi_def_cfa_offset 10
	.cfi_offset 23, -9
	push r24
.LCFI24:
	.cfi_def_cfa_offset 11
	.cfi_offset 24, -10
	push r25
.LCFI25:
	.cfi_def_cfa_offset 12
	.cfi_offset 25, -11
	push r26
.LCFI26:
	.cfi_def_cfa_offset 13
	.cfi_offset 26, -12
	push r27
.LCFI27:
	.cfi_def_cfa_offset 14
	.cfi_offset 27, -13
	push r30
.LCFI28:
	.cfi_def_cfa_offset 15
	.cfi_offset 30, -14
	push r31
.LCFI29:
	.cfi_def_cfa_offset 16
	.cfi_offset 31, -15
/* prologue: Signal */
/* frame size = 0 */
/* stack size = 15 */
.L__stack_usage = 15
	.loc 1 70 0
	in r24,0x8
	andi r24,lo8(102)
	out 0x8,r24
	.loc 1 71 0
/* #APP */
 ;  71 "../driver/pwm.c" 1
	sei
 ;  0 "" 2
	.loc 1 73 0
/* #NOAPP */
	lds r24,index.1798
	cpse r24,__zero_reg__
	rjmp .L20
.LVL15:
.LBB19:
.LBB20:
	.loc 1 21 0
	call millis
.LVL16:
	.loc 1 22 0
	lds r18,lastLoStart.1800
	lds r19,lastLoStart.1800+1
	movw r20,r24
	sub r20,r18
	sbc r21,r19
	cpi r20,20
	cpc r21,__zero_reg__
	brlo .L22
	.loc 1 24 0
	sts lastLoStart.1800+1,r25
	sts lastLoStart.1800,r24
	.loc 1 25 0
	ldi r24,lo8(1)
.LVL17:
	rjmp .L21
.LVL18:
.L22:
	.loc 1 28 0
	ldi r24,0
.LVL19:
.L21:
.LBE20:
.LBE19:
	.loc 1 74 0
	sts loActive.1799,r24
.LVL20:
.L20:
	.loc 1 76 0
	lds r24,index.1798
	lsl r24
	lds r22,loActive.1799
	subi r24,lo8(-(1))
	call doOutput
.LVL21:
	sts 138+1,r25
	sts 138,r24
	.loc 1 77 0
/* #APP */
 ;  77 "../driver/pwm.c" 1
	sei
 ;  0 "" 2
	.loc 1 78 0
/* #NOAPP */
	lds r24,index.1798
	ldi r25,0
	adiw r24,1
	andi r24,3
	clr r25
	sts index.1798,r24
/* epilogue start */
	.loc 1 79 0
	pop r31
	pop r30
	pop r27
	pop r26
	pop r25
	pop r24
	pop r23
	pop r22
	pop r21
	pop r20
	pop r19
	pop r18
	pop r0
	out __SREG__,r0
	pop r0
	pop r1
	reti
	.cfi_endproc
.LFE11:
	.size	__vector_14, .-__vector_14
	.section	.text.pwmInit,"ax",@progbits
.global	pwmInit
	.type	pwmInit, @function
pwmInit:
.LFB12:
	.loc 1 83 0
	.cfi_startproc
/* prologue: function */
/* frame size = 0 */
/* stack size = 0 */
.L__stack_usage = 0
	.loc 1 84 0
	ldi r24,lo8(-1)
	out 0x7,r24
	.loc 1 85 0
	out 0x8,__zero_reg__
	ret
	.cfi_endproc
.LFE12:
	.size	pwmInit, .-pwmInit
	.section	.text.pwmWrite,"ax",@progbits
.global	pwmWrite
	.type	pwmWrite, @function
pwmWrite:
.LFB13:
	.loc 1 89 0
	.cfi_startproc
.LVL22:
/* prologue: function */
/* frame size = 0 */
/* stack size = 0 */
.L__stack_usage = 0
.LBB21:
.LBB22:
.LBB23:
	.file 2 "c:\\program files (x86)\\atmel\\atmel toolchain\\avr8 gcc\\native\\3.4.1061\\avr8-gnu-toolchain\\avr\\include\\util\\atomic.h"
	.loc 2 50 0
/* #APP */
 ;  50 "c:\program files (x86)\atmel\atmel toolchain\avr8 gcc\native\3.4.1061\avr8-gnu-toolchain\avr\include\util\atomic.h" 1
	cli
 ;  0 "" 2
.LVL23:
/* #NOAPP */
.LBE23:
.LBE22:
	.loc 1 91 0
	mov r30,r24
	ldi r31,0
	lsl r30
	rol r31
	subi r30,lo8(-(PWM))
	sbci r31,hi8(-(PWM))
	ldi r18,lo8(20)
	mul r18,r22
	movw r24,r0
	mul r18,r23
	add r25,r0
	clr __zero_reg__
.LVL24:
	std Z+1,r25
	st Z,r24
.LVL25:
.LBB24:
.LBB25:
	.loc 2 56 0
/* #APP */
 ;  56 "c:\program files (x86)\atmel\atmel toolchain\avr8 gcc\native\3.4.1061\avr8-gnu-toolchain\avr\include\util\atomic.h" 1
	sei
 ;  0 "" 2
	.loc 2 57 0
/* #NOAPP */
	ret
.LBE25:
.LBE24:
.LBE21:
	.cfi_endproc
.LFE13:
	.size	pwmWrite, .-pwmWrite
	.section	.text.pwmEnable,"ax",@progbits
.global	pwmEnable
	.type	pwmEnable, @function
pwmEnable:
.LFB14:
	.loc 1 95 0
	.cfi_startproc
/* prologue: function */
/* frame size = 0 */
/* stack size = 0 */
.L__stack_usage = 0
	.loc 1 96 0
	ldi r30,lo8(-124)
	ldi r31,0
	ld r24,Z
	ldd r25,Z+1
	sts 136+1,r25
	sts 136,r24
	.loc 1 97 0
	ld r24,Z
	ldd r25,Z+1
	sts 138+1,r25
	sts 138,r24
	.loc 1 98 0
	in r24,0x16
	ori r24,lo8(6)
	out 0x16,r24
	.loc 1 99 0
	ldi r30,lo8(111)
	ldi r31,0
	ld r24,Z
	ori r24,lo8(6)
	st Z,r24
	ret
	.cfi_endproc
.LFE14:
	.size	pwmEnable, .-pwmEnable
	.section	.text.pwmDisable,"ax",@progbits
.global	pwmDisable
	.type	pwmDisable, @function
pwmDisable:
.LFB15:
	.loc 1 103 0
	.cfi_startproc
/* prologue: function */
/* frame size = 0 */
/* stack size = 0 */
.L__stack_usage = 0
.LBB26:
	.loc 1 104 0
	in r25,__SREG__
.LVL26:
.LBB27:
.LBB28:
	.loc 2 50 0
/* #APP */
 ;  50 "c:\program files (x86)\atmel\atmel toolchain\avr8 gcc\native\3.4.1061\avr8-gnu-toolchain\avr\include\util\atomic.h" 1
	cli
 ;  0 "" 2
.LVL27:
/* #NOAPP */
.LBE28:
.LBE27:
	.loc 1 106 0
	ldi r30,lo8(111)
	ldi r31,0
	ld r24,Z
	andi r24,lo8(-7)
	st Z,r24
	.loc 1 107 0
	in r24,0x16
	ori r24,lo8(6)
	out 0x16,r24
.LVL28:
.LBB29:
.LBB30:
	.loc 2 70 0
	out __SREG__,r25
	.loc 2 71 0
.LBE30:
.LBE29:
.LBE26:
	.loc 1 109 0
	out 0x8,__zero_reg__
	ret
	.cfi_endproc
.LFE15:
	.size	pwmDisable, .-pwmDisable
	.section	.bss.loActive.1799,"aw",@nobits
	.type	loActive.1799, @object
	.size	loActive.1799, 1
loActive.1799:
	.zero	1
	.section	.bss.lastLoStart.1800,"aw",@nobits
	.type	lastLoStart.1800, @object
	.size	lastLoStart.1800, 2
lastLoStart.1800:
	.zero	2
	.section	.bss.index.1798,"aw",@nobits
	.type	index.1798, @object
	.size	index.1798, 1
index.1798:
	.zero	1
	.section	.bss.loActive.1791,"aw",@nobits
	.type	loActive.1791, @object
	.size	loActive.1791, 1
loActive.1791:
	.zero	1
	.section	.bss.lastLoStart.1792,"aw",@nobits
	.type	lastLoStart.1792, @object
	.size	lastLoStart.1792, 2
lastLoStart.1792:
	.zero	2
	.section	.bss.index.1790,"aw",@nobits
	.type	index.1790, @object
	.size	index.1790, 1
index.1790:
	.zero	1
	.section	.progmem.data.masktable,"a",@progbits
	.type	masktable, @object
	.size	masktable, 8
masktable:
	.byte	64
	.byte	16
	.byte	4
	.byte	8
	.byte	2
	.byte	1
	.byte	32
	.byte	-128
	.section	.bss.PWM,"aw",@nobits
	.type	PWM, @object
	.size	PWM, 16
PWM:
	.zero	16
	.text
.Letext0:
	.file 3 "c:\\program files (x86)\\atmel\\atmel toolchain\\avr8 gcc\\native\\3.4.1061\\avr8-gnu-toolchain\\avr\\include\\stdint.h"
	.file 4 "../include/mixer.h"
	.file 5 "../include/pid.h"
	.file 6 "../include/config.h"
	.file 7 "../include/system.h"