	.file	"rx.c"
__SP_H__ = 0x3e
__SP_L__ = 0x3d
__SREG__ = 0x3f
__tmp_reg__ = 0
__zero_reg__ = 1
	.text
.Ltext0:
	.cfi_sections	.debug_frame
	.section	.lowtext,"ax",@progbits
.global	__vector_2
	.type	__vector_2, @function
__vector_2:
.LFB8:
	.file 1 "../driver/rx.c"
	.loc 1 35 0
	.cfi_startproc
	push r1
.LCFI0:
	.cfi_def_cfa_offset 3
	.cfi_offset 1, -2
	push r0
.LCFI1:
	.cfi_def_cfa_offset 4
	.cfi_offset 0, -3
	in r0,__SREG__
	push r0
	clr __zero_reg__
	push r18
.LCFI2:
	.cfi_def_cfa_offset 5
	.cfi_offset 18, -4
	push r19
.LCFI3:
	.cfi_def_cfa_offset 6
	.cfi_offset 19, -5
	push r20
.LCFI4:
	.cfi_def_cfa_offset 7
	.cfi_offset 20, -6
	push r21
.LCFI5:
	.cfi_def_cfa_offset 8
	.cfi_offset 21, -7
	push r22
.LCFI6:
	.cfi_def_cfa_offset 9
	.cfi_offset 22, -8
	push r23
.LCFI7:
	.cfi_def_cfa_offset 10
	.cfi_offset 23, -9
	push r24
.LCFI8:
	.cfi_def_cfa_offset 11
	.cfi_offset 24, -10
	push r25
.LCFI9:
	.cfi_def_cfa_offset 12
	.cfi_offset 25, -11
	push r26
.LCFI10:
	.cfi_def_cfa_offset 13
	.cfi_offset 26, -12
	push r27
.LCFI11:
	.cfi_def_cfa_offset 14
	.cfi_offset 27, -13
	push r30
.LCFI12:
	.cfi_def_cfa_offset 15
	.cfi_offset 30, -14
	push r31
.LCFI13:
	.cfi_def_cfa_offset 16
	.cfi_offset 31, -15
/* prologue: Signal */
/* frame size = 0 */
/* stack size = 15 */
.L__stack_usage = 15
	.loc 1 37 0
	call ticks
.LVL0:
	.loc 1 38 0
/* #APP */
 ;  38 "../driver/rx.c" 1
	sei
 ;  0 "" 2
	.loc 1 40 0
/* #NOAPP */
	sbis 0x9,3
	rjmp .L2
	.loc 1 41 0
	sts _start.1912,r22
	sts _start.1912+1,r23
	sts _start.1912+2,r24
	sts _start.1912+3,r25
	rjmp .L1
.L2:
	.loc 1 44 0
	lds r18,_start.1912
	lds r19,_start.1912+1
	sub r22,r18
	sbc r23,r19
.LVL1:
	sts RX_isr+1,r23
	sts RX_isr,r22
	.loc 1 45 0
	lds r24,_RX_good
	ori r24,lo8(1)
	sts _RX_good,r24
.L1:
/* epilogue start */
	.loc 1 47 0
	pop r31
	pop r30
	pop r27
	pop r26
	pop r25
	pop r24
	pop r23
	pop r22
	pop r21
	pop r20
	pop r19
	pop r18
	pop r0
	out __SREG__,r0
	pop r0
	pop r1
	reti
	.cfi_endproc
.LFE8:
	.size	__vector_2, .-__vector_2
.global	__vector_1
	.type	__vector_1, @function
__vector_1:
.LFB9:
	.loc 1 52 0
	.cfi_startproc
	push r1
.LCFI14:
	.cfi_def_cfa_offset 3
	.cfi_offset 1, -2
	push r0
.LCFI15:
	.cfi_def_cfa_offset 4
	.cfi_offset 0, -3
	in r0,__SREG__
	push r0
	clr __zero_reg__
	push r18
.LCFI16:
	.cfi_def_cfa_offset 5
	.cfi_offset 18, -4
	push r19
.LCFI17:
	.cfi_def_cfa_offset 6
	.cfi_offset 19, -5
	push r20
.LCFI18:
	.cfi_def_cfa_offset 7
	.cfi_offset 20, -6
	push r21
.LCFI19:
	.cfi_def_cfa_offset 8
	.cfi_offset 21, -7
	push r22
.LCFI20:
	.cfi_def_cfa_offset 9
	.cfi_offset 22, -8
	push r23
.LCFI21:
	.cfi_def_cfa_offset 10
	.cfi_offset 23, -9
	push r24
.LCFI22:
	.cfi_def_cfa_offset 11
	.cfi_offset 24, -10
	push r25
.LCFI23:
	.cfi_def_cfa_offset 12
	.cfi_offset 25, -11
	push r26
.LCFI24:
	.cfi_def_cfa_offset 13
	.cfi_offset 26, -12
	push r27
.LCFI25:
	.cfi_def_cfa_offset 14
	.cfi_offset 27, -13
	push r30
.LCFI26:
	.cfi_def_cfa_offset 15
	.cfi_offset 30, -14
	push r31
.LCFI27:
	.cfi_def_cfa_offset 16
	.cfi_offset 31, -15
/* prologue: Signal */
/* frame size = 0 */
/* stack size = 15 */
.L__stack_usage = 15
	.loc 1 54 0
	call ticks
.LVL2:
	.loc 1 55 0
/* #APP */
 ;  55 "../driver/rx.c" 1
	sei
 ;  0 "" 2
	.loc 1 57 0
/* #NOAPP */
	sbis 0x9,2
	rjmp .L6
	.loc 1 58 0
	sts _start.1919,r22
	sts _start.1919+1,r23
	sts _start.1919+2,r24
	sts _start.1919+3,r25
	rjmp .L5
.L6:
	.loc 1 61 0
	lds r18,_start.1919
	lds r19,_start.1919+1
	sub r22,r18
	sbc r23,r19
.LVL3:
	sts RX_isr+2+1,r23
	sts RX_isr+2,r22
	.loc 1 62 0
	lds r24,_RX_good
	ori r24,lo8(2)
	sts _RX_good,r24
.L5:
/* epilogue start */
	.loc 1 64 0
	pop r31
	pop r30
	pop r27
	pop r26
	pop r25
	pop r24
	pop r23
	pop r22
	pop r21
	pop r20
	pop r19
	pop r18
	pop r0
	out __SREG__,r0
	pop r0
	pop r1
	reti
	.cfi_endproc
.LFE9:
	.size	__vector_1, .-__vector_1
.global	__vector_3
	.type	__vector_3, @function
__vector_3:
.LFB10:
	.loc 1 69 0
	.cfi_startproc
	push r1
.LCFI28:
	.cfi_def_cfa_offset 3
	.cfi_offset 1, -2
	push r0
.LCFI29:
	.cfi_def_cfa_offset 4
	.cfi_offset 0, -3
	in r0,__SREG__
	push r0
	clr __zero_reg__
	push r12
.LCFI30:
	.cfi_def_cfa_offset 5
	.cfi_offset 12, -4
	push r13
.LCFI31:
	.cfi_def_cfa_offset 6
	.cfi_offset 13, -5
	push r14
.LCFI32:
	.cfi_def_cfa_offset 7
	.cfi_offset 14, -6
	push r15
.LCFI33:
	.cfi_def_cfa_offset 8
	.cfi_offset 15, -7
	push r16
.LCFI34:
	.cfi_def_cfa_offset 9
	.cfi_offset 16, -8
	push r17
.LCFI35:
	.cfi_def_cfa_offset 10
	.cfi_offset 17, -9
	push r18
.LCFI36:
	.cfi_def_cfa_offset 11
	.cfi_offset 18, -10
	push r19
.LCFI37:
	.cfi_def_cfa_offset 12
	.cfi_offset 19, -11
	push r20
.LCFI38:
	.cfi_def_cfa_offset 13
	.cfi_offset 20, -12
	push r21
.LCFI39:
	.cfi_def_cfa_offset 14
	.cfi_offset 21, -13
	push r22
.LCFI40:
	.cfi_def_cfa_offset 15
	.cfi_offset 22, -14
	push r23
.LCFI41:
	.cfi_def_cfa_offset 16
	.cfi_offset 23, -15
	push r24
.LCFI42:
	.cfi_def_cfa_offset 17
	.cfi_offset 24, -16
	push r25
.LCFI43:
	.cfi_def_cfa_offset 18
	.cfi_offset 25, -17
	push r26
.LCFI44:
	.cfi_def_cfa_offset 19
	.cfi_offset 26, -18
	push r27
.LCFI45:
	.cfi_def_cfa_offset 20
	.cfi_offset 27, -19
	push r30
.LCFI46:
	.cfi_def_cfa_offset 21
	.cfi_offset 30, -20
	push r31
.LCFI47:
	.cfi_def_cfa_offset 22
	.cfi_offset 31, -21
/* prologue: Signal */
/* frame size = 0 */
/* stack size = 21 */
.L__stack_usage = 21
	.loc 1 74 0
	call ticks
.LVL4:
	.loc 1 75 0
/* #APP */
 ;  75 "../driver/rx.c" 1
	sei
 ;  0 "" 2
	.loc 1 77 0
/* #NOAPP */
	lds r18,_mode
	tst r18
	breq .L9
	.loc 1 79 0
	lds r16,_start.1926
	lds r17,_start.1926+1
	lds r18,_start.1926+2
	lds r19,_start.1926+3
	movw r12,r22
	movw r14,r24
	sub r12,r16
	sbc r13,r17
	sbc r14,r18
	sbc r15,r19
	ldi r20,97
	cp r12,r20
	ldi r20,-22
	cpc r13,r20
	cpc r14,__zero_reg__
	cpc r15,__zero_reg__
	brlo .L10
	.loc 1 81 0
	sts _index.1927,__zero_reg__
	.loc 1 82 0
	ldi r18,lo8(1)
	sts _mask.1928,r18
	rjmp .L14
.L10:
	.loc 1 84 0
	lds r20,_index.1927
	cpi r20,lo8(8)
	brsh .L14
	.loc 1 86 0
	mov r30,r20
	ldi r31,0
	lsl r30
	rol r31
	subi r30,lo8(-(RX_isr))
	sbci r31,hi8(-(RX_isr))
	movw r18,r22
	sub r18,r16
	sbc r19,r17
	std Z+1,r19
	st Z,r18
	.loc 1 87 0
	subi r20,lo8(-(1))
	sts _index.1927,r20
	.loc 1 88 0
	lds r19,_mask.1928
	lds r18,_RX_good
	or r18,r19
	sts _RX_good,r18
	.loc 1 89 0
	lsl r19
	sts _mask.1928,r19
	rjmp .L14
.L9:
	.loc 1 95 0
	sbis 0x3,2
	rjmp .L13
.L14:
	.loc 1 96 0
	sts _start.1926,r22
	sts _start.1926+1,r23
	sts _start.1926+2,r24
	sts _start.1926+3,r25
	rjmp .L8
.L13:
	.loc 1 99 0
	lds r18,_start.1926
	lds r19,_start.1926+1
	sub r22,r18
	sbc r23,r19
.LVL5:
	sts RX_isr+4+1,r23
	sts RX_isr+4,r22
	.loc 1 100 0
	lds r24,_RX_good
	ori r24,lo8(4)
	sts _RX_good,r24
.L8:
/* epilogue start */
	.loc 1 103 0
	pop r31
	pop r30
	pop r27
	pop r26
	pop r25
	pop r24
	pop r23
	pop r22
	pop r21
	pop r20
	pop r19
	pop r18
	pop r17
	pop r16
	pop r15
	pop r14
	pop r13
	pop r12
	pop r0
	out __SREG__,r0
	pop r0
	pop r1
	reti
	.cfi_endproc
.LFE10:
	.size	__vector_3, .-__vector_3
.global	__vector_7
	.type	__vector_7, @function
__vector_7:
.LFB11:
	.loc 1 108 0
	.cfi_startproc
	push r1
.LCFI48:
	.cfi_def_cfa_offset 3
	.cfi_offset 1, -2
	push r0
.LCFI49:
	.cfi_def_cfa_offset 4
	.cfi_offset 0, -3
	in r0,__SREG__
	push r0
	clr __zero_reg__
	push r18
.LCFI50:
	.cfi_def_cfa_offset 5
	.cfi_offset 18, -4
	push r19
.LCFI51:
	.cfi_def_cfa_offset 6
	.cfi_offset 19, -5
	push r20
.LCFI52:
	.cfi_def_cfa_offset 7
	.cfi_offset 20, -6
	push r21
.LCFI53:
	.cfi_def_cfa_offset 8
	.cfi_offset 21, -7
	push r22
.LCFI54:
	.cfi_def_cfa_offset 9
	.cfi_offset 22, -8
	push r23
.LCFI55:
	.cfi_def_cfa_offset 10
	.cfi_offset 23, -9
	push r24
.LCFI56:
	.cfi_def_cfa_offset 11
	.cfi_offset 24, -10
	push r25
.LCFI57:
	.cfi_def_cfa_offset 12
	.cfi_offset 25, -11
	push r26
.LCFI58:
	.cfi_def_cfa_offset 13
	.cfi_offset 26, -12
	push r27
.LCFI59:
	.cfi_def_cfa_offset 14
	.cfi_offset 27, -13
	push r30
.LCFI60:
	.cfi_def_cfa_offset 15
	.cfi_offset 30, -14
	push r31
.LCFI61:
	.cfi_def_cfa_offset 16
	.cfi_offset 31, -15
/* prologue: Signal */
/* frame size = 0 */
/* stack size = 15 */
.L__stack_usage = 15
	.loc 1 110 0
	call ticks
.LVL6:
	.loc 1 111 0
/* #APP */
 ;  111 "../driver/rx.c" 1
	sei
 ;  0 "" 2
	.loc 1 113 0
/* #NOAPP */
	sbis 0x9,0
	rjmp .L16
	.loc 1 114 0
	sts _start.1935+1,r23
	sts _start.1935,r22
	rjmp .L15
.L16:
	.loc 1 117 0
	lds r18,_start.1935
	lds r19,_start.1935+1
	sub r22,r18
	sbc r23,r19
.LVL7:
	sts RX_isr+6+1,r23
	sts RX_isr+6,r22
	.loc 1 118 0
	lds r24,_RX_good
	ori r24,lo8(8)
	sts _RX_good,r24
.L15:
/* epilogue start */
	.loc 1 120 0
	pop r31
	pop r30
	pop r27
	pop r26
	pop r25
	pop r24
	pop r23
	pop r22
	pop r21
	pop r20
	pop r19
	pop r18
	pop r0
	out __SREG__,r0
	pop r0
	pop r1
	reti
	.cfi_endproc
.LFE11:
	.size	__vector_7, .-__vector_7
.global	__vector_5
	.type	__vector_5, @function
__vector_5:
.LFB12:
	.loc 1 125 0
	.cfi_startproc
	push r1
.LCFI62:
	.cfi_def_cfa_offset 3
	.cfi_offset 1, -2
	push r0
.LCFI63:
	.cfi_def_cfa_offset 4
	.cfi_offset 0, -3
	in r0,__SREG__
	push r0
	clr __zero_reg__
	push r18
.LCFI64:
	.cfi_def_cfa_offset 5
	.cfi_offset 18, -4
	push r19
.LCFI65:
	.cfi_def_cfa_offset 6
	.cfi_offset 19, -5
	push r20
.LCFI66:
	.cfi_def_cfa_offset 7
	.cfi_offset 20, -6
	push r21
.LCFI67:
	.cfi_def_cfa_offset 8
	.cfi_offset 21, -7
	push r22
.LCFI68:
	.cfi_def_cfa_offset 9
	.cfi_offset 22, -8
	push r23
.LCFI69:
	.cfi_def_cfa_offset 10
	.cfi_offset 23, -9
	push r24
.LCFI70:
	.cfi_def_cfa_offset 11
	.cfi_offset 24, -10
	push r25
.LCFI71:
	.cfi_def_cfa_offset 12
	.cfi_offset 25, -11
	push r26
.LCFI72:
	.cfi_def_cfa_offset 13
	.cfi_offset 26, -12
	push r27
.LCFI73:
	.cfi_def_cfa_offset 14
	.cfi_offset 27, -13
	push r30
.LCFI74:
	.cfi_def_cfa_offset 15
	.cfi_offset 30, -14
	push r31
.LCFI75:
	.cfi_def_cfa_offset 16
	.cfi_offset 31, -15
/* prologue: Signal */
/* frame size = 0 */
/* stack size = 15 */
.L__stack_usage = 15
	.loc 1 127 0
	call ticks
.LVL8:
	.loc 1 128 0
/* #APP */
 ;  128 "../driver/rx.c" 1
	sei
 ;  0 "" 2
	.loc 1 130 0
/* #NOAPP */
	sbis 0x3,0
	rjmp .L19
	.loc 1 131 0
	sts _start.1942+1,r23
	sts _start.1942,r22
	rjmp .L18
.L19:
	.loc 1 134 0
	lds r18,_start.1942
	lds r19,_start.1942+1
	sub r22,r18
	sbc r23,r19
.LVL9:
	sts RX_isr+8+1,r23
	sts RX_isr+8,r22
	.loc 1 135 0
	lds r24,_RX_good
	ori r24,lo8(16)
	sts _RX_good,r24
.L18:
/* epilogue start */
	.loc 1 137 0
	pop r31
	pop r30
	pop r27
	pop r26
	pop r25
	pop r24
	pop r23
	pop r22
	pop r21
	pop r20
	pop r19
	pop r18
	pop r0
	out __SREG__,r0
	pop r0
	pop r1
	reti
	.cfi_endproc
.LFE12:
	.size	__vector_5, .-__vector_5
	.section	.text.rxInit,"ax",@progbits
.global	rxInit
	.type	rxInit, @function
rxInit:
.LFB13:
	.loc 1 140 0
	.cfi_startproc
.LVL10:
	push r28
.LCFI76:
	.cfi_def_cfa_offset 3
	.cfi_offset 28, -2
	push r29
.LCFI77:
	.cfi_def_cfa_offset 4
	.cfi_offset 29, -3
/* prologue: function */
/* frame size = 0 */
/* stack size = 2 */
.L__stack_usage = 2
	mov r28,r24
.LBB14:
	.loc 1 141 0
	in r29,__SREG__
.LVL11:
.LBB15:
.LBB16:
	.file 2 "c:\\program files (x86)\\atmel\\atmel toolchain\\avr8 gcc\\native\\3.4.1061\\avr8-gnu-toolchain\\avr\\include\\util\\atomic.h"
	.loc 2 50 0
/* #APP */
 ;  50 "c:\program files (x86)\atmel\atmel toolchain\avr8 gcc\native\3.4.1061\avr8-gnu-toolchain\avr\include\util\atomic.h" 1
	cli
 ;  0 "" 2
.LVL12:
/* #NOAPP */
.LBE16:
.LBE15:
	.loc 1 143 0
	tst r24
	breq .L22
	.loc 1 145 0
	call serialInit
.LVL13:
	.loc 1 147 0
	cbi 0xa,3
	.loc 1 150 0
	ldi r24,lo8(32)
	sts 105,r24
	.loc 1 151 0
	ldi r24,lo8(7)
	out 0x1c,r24
	.loc 1 152 0
	ldi r24,lo8(4)
	out 0x1d,r24
	.loc 1 153 0
	sts 104,__zero_reg__
	.loc 1 154 0
	ldi r24,lo8(10)
	out 0x1b,r24
	rjmp .L23
.LVL14:
.L22:
	.loc 1 158 0
	call serialTerminate
.LVL15:
	.loc 1 160 0
	cbi 0xa,3
	.loc 1 161 0
	cbi 0xa,2
	.loc 1 162 0
	cbi 0xa,0
	.loc 1 163 0
	cbi 0x4,2
	.loc 1 164 0
	cbi 0x4,0
	.loc 1 167 0
	ldi r24,lo8(21)
	sts 105,r24
	.loc 1 168 0
	ldi r24,lo8(7)
	out 0x1c,r24
	.loc 1 169 0
	out 0x1d,r24
	.loc 1 170 0
	ldi r24,lo8(1)
	sts 108,r24
	.loc 1 171 0
	sts 115,r24
	.loc 1 172 0
	ldi r24,lo8(10)
	out 0x1b,r24
	.loc 1 173 0
	lds r25,104
	ori r25,lo8(10)
	sts 104,r25
.L23:
	.loc 1 175 0
	sts _mode,r28
	.loc 1 176 0
	sts RX_good,__zero_reg__
.LVL16:
.LBB17:
.LBB18:
	.loc 2 70 0
	out __SREG__,r29
	.loc 2 71 0
/* epilogue start */
.LBE18:
.LBE17:
.LBE14:
	.loc 1 178 0
	pop r29
.LVL17:
	pop r28
.LVL18:
	ret
	.cfi_endproc
.LFE13:
	.size	rxInit, .-rxInit
	.section	.text.rxRead,"ax",@progbits
.global	rxRead
	.type	rxRead, @function
rxRead:
.LFB14:
	.loc 1 181 0
	.cfi_startproc
	push r14
.LCFI78:
	.cfi_def_cfa_offset 3
	.cfi_offset 14, -2
	push r15
.LCFI79:
	.cfi_def_cfa_offset 4
	.cfi_offset 15, -3
	push r16
.LCFI80:
	.cfi_def_cfa_offset 5
	.cfi_offset 16, -4
	push r17
.LCFI81:
	.cfi_def_cfa_offset 6
	.cfi_offset 17, -5
	push r28
.LCFI82:
	.cfi_def_cfa_offset 7
	.cfi_offset 28, -6
	push r29
.LCFI83:
	.cfi_def_cfa_offset 8
	.cfi_offset 29, -7
/* prologue: function */
/* frame size = 0 */
/* stack size = 6 */
.L__stack_usage = 6
.LBB19:
	.loc 1 185 0
	call millis
.LVL19:
	lds r22,_RX_good
	lds r23,RX_good
	lds r18,_t185.1956
	lds r19,_t185.1956+1
.L25:
	.loc 1 185 0 is_stmt 0 discriminator 1
	movw r20,r24
	sub r20,r18
	sbc r21,r19
	cpi r20,50
	cpc r21,__zero_reg__
	brlo .L34
	.loc 1 187 0 is_stmt 1 discriminator 2
	mov r23,r22
	.loc 1 185 0 discriminator 2
	movw r18,r24
	.loc 1 188 0 discriminator 2
	ldi r22,0
	rjmp .L25
.L34:
	sts _RX_good,r22
	sts RX_good,r23
	sts _t185.1956+1,r19
	sts _t185.1956,r18
	ldi r16,lo8(Config+17)
	ldi r17,hi8(Config+17)
	.loc 1 185 0
	movw r28,r16
	ldi r18,0
	ldi r19,0
.LBE19:
.LBB20:
	.loc 1 201 0
	ldi r22,lo8(20)
	mov r14,r22
	mov r15,__zero_reg__
.LVL20:
.L30:
	mov r30,r28
	sub r30,r16
.LVL21:
	.loc 1 193 0
	lds r24,_mode
	tst r24
	breq .L27
	.loc 1 196 0
	ld r30,Y
.LVL22:
	subi r30,lo8(-(-1))
.LVL23:
.L27:
.LBB21:
.LBB22:
.LBB23:
	.loc 2 50 0
/* #APP */
 ;  50 "c:\program files (x86)\atmel\atmel toolchain\avr8 gcc\native\3.4.1061\avr8-gnu-toolchain\avr\include\util\atomic.h" 1
	cli
 ;  0 "" 2
.LVL24:
/* #NOAPP */
.LBE23:
.LBE22:
	.loc 1 199 0
	ldi r31,0
	lsl r30
	rol r31
.LVL25:
	subi r30,lo8(-(RX_isr))
	sbci r31,hi8(-(RX_isr))
	ld r24,Z
	ldd r25,Z+1
.LVL26:
.LBB24:
.LBB25:
	.loc 2 56 0
/* #APP */
 ;  56 "c:\program files (x86)\atmel\atmel toolchain\avr8 gcc\native\3.4.1061\avr8-gnu-toolchain\avr\include\util\atomic.h" 1
	sei
 ;  0 "" 2
	.loc 2 57 0
/* #NOAPP */
.LBE25:
.LBE24:
.LBE21:
	.loc 1 201 0
	movw r22,r14
	call __udivmodhi4
.LVL27:
	.loc 1 207 0
	movw r20,r22
	subi r20,-124
	sbci r21,3
	cpi r20,-79
	sbci r21,4
	brsh .L28
	movw r30,r18
	subi r30,lo8(-(RX_raw))
	sbci r31,hi8(-(RX_raw))
	.loc 1 209 0
	std Z+1,r23
	st Z,r22
	movw r30,r18
	subi r30,lo8(-(Config))
	sbci r31,hi8(-(Config))
	.loc 1 210 0
	ldd r20,Z+1
	ldd r21,Z+2
	movw r24,r22
	sub r24,r20
	sbc r25,r21
	asr r25
	ror r24
	asr r25
	ror r24
	movw r30,r18
	subi r30,lo8(-(RX))
	sbci r31,hi8(-(RX))
	std Z+1,r25
	st Z,r24
.L28:
.LVL28:
	subi r18,-2
	sbci r19,-1
	adiw r28,1
.LVL29:
	.loc 1 191 0
	cpi r18,16
	cpc r19,__zero_reg__
	brne .L30
.LBE20:
	.loc 1 215 0
	lds r24,RX+6
	lds r25,RX+6+1
	asr r25
	ror r24
	sts RX+6+1,r25
	sts RX+6,r24
/* epilogue start */
	.loc 1 216 0
	pop r29
	pop r28
.LVL30:
	pop r17
	pop r16
	pop r15
	pop r14
	ret
	.cfi_endproc
.LFE14:
	.size	rxRead, .-rxRead
	.section	.text.rxCalibrate,"ax",@progbits
.global	rxCalibrate
	.type	rxCalibrate, @function
rxCalibrate:
.LFB15:
	.loc 1 219 0
	.cfi_startproc
/* prologue: function */
/* frame size = 0 */
/* stack size = 0 */
.L__stack_usage = 0
	.loc 1 220 0
	call rxRead
.LVL31:
.LBB26:
	.loc 1 225 0
	lds r18,RX_raw+6
	lds r19,RX_raw+6+1
	subi r18,26
	sbci r19,4
	ldi r30,lo8(RX_raw)
	ldi r31,hi8(RX_raw)
	.loc 1 221 0
	ldi r20,0
.LVL32:
.L40:
	.loc 1 223 0
	cpi r20,lo8(3)
	brne .L36
	.loc 1 225 0
	cpi r18,101
	cpc r19,__zero_reg__
	brlo .L38
	rjmp .L42
.L36:
	.loc 1 228 0
	ld r24,Z
	ldd r25,Z+1
	sbiw r24,0
	breq .L38
	.loc 1 228 0 is_stmt 0 discriminator 1
	subi r24,-66
	sbci r25,5
	cpi r24,101
	cpc r25,__zero_reg__
	brsh .L42
.L38:
	.loc 1 221 0 is_stmt 1
	subi r20,lo8(-(1))
.LVL33:
	adiw r30,2
	cpi r20,lo8(8)
	brne .L40
.LBE26:
	.loc 1 231 0
	ldi r24,lo8(16)
	ldi r30,lo8(RX_raw)
	ldi r31,hi8(RX_raw)
	ldi r26,lo8(Config+1)
	ldi r27,hi8(Config+1)
	0:
	ld r0,Z+
	st X+,r0
	dec r24
	brne 0b
	.loc 1 232 0
	ldi r24,lo8(1)
	ret
.L42:
.LBB27:
	.loc 1 226 0
	ldi r24,0
.LBE27:
	.loc 1 233 0
	ret
	.cfi_endproc
.LFE15:
	.size	rxCalibrate, .-rxCalibrate
	.section	.bss._t185.1956,"aw",@nobits
	.type	_t185.1956, @object
	.size	_t185.1956, 2
_t185.1956:
	.zero	2
	.section	.bss._start.1942,"aw",@nobits
	.type	_start.1942, @object
	.size	_start.1942, 2
_start.1942:
	.zero	2
	.section	.bss._start.1935,"aw",@nobits
	.type	_start.1935, @object
	.size	_start.1935, 2
_start.1935:
	.zero	2
	.section	.bss._mask.1928,"aw",@nobits
	.type	_mask.1928, @object
	.size	_mask.1928, 1
_mask.1928:
	.zero	1
	.section	.bss._index.1927,"aw",@nobits
	.type	_index.1927, @object
	.size	_index.1927, 1
_index.1927:
	.zero	1
	.section	.bss._start.1926,"aw",@nobits
	.type	_start.1926, @object
	.size	_start.1926, 4
_start.1926:
	.zero	4
	.section	.bss._start.1919,"aw",@nobits
	.type	_start.1919, @object
	.size	_start.1919, 4
_start.1919:
	.zero	4
	.section	.bss._start.1912,"aw",@nobits
	.type	_start.1912, @object
	.size	_start.1912, 4
_start.1912:
	.zero	4
	.section	.bss._RX_good,"aw",@nobits
	.type	_RX_good, @object
	.size	_RX_good, 1
_RX_good:
	.zero	1
	.section	.bss._mode,"aw",@nobits
	.type	_mode, @object
	.size	_mode, 1
_mode:
	.zero	1
	.section	.bss.RX_isr,"aw",@nobits
	.type	RX_isr, @object
	.size	RX_isr, 16
RX_isr:
	.zero	16
	.comm	RX_good,1,1
	.comm	RX_raw,16,1
	.comm	RX,16,1
	.text
.Letext0:
	.file 3 "c:\\program files (x86)\\atmel\\atmel toolchain\\avr8 gcc\\native\\3.4.1061\\avr8-gnu-toolchain\\avr\\include\\stdint.h"
	.file 4 "../include/hardware.h"
	.file 5 "../include/mixer.h"
	.file 6 "../include/pid.h"
	.file 7 "../include/config.h"
	.file 8 "../include/serial.h"
	.file 9 "../include/system.h"